
bin.elf:     file format elf32-littlearm


Disassembly of section .text:

87800000 <_start>:
87800000:	e10f0000 	mrs	r0, CPSR
87800004:	e3c0001f 	bic	r0, r0, #31
87800008:	e3800013 	orr	r0, r0, #19
8780000c:	e129f000 	msr	CPSR_fc, r0
87800010:	e51fd000 	ldr	sp, [pc, #-0]	; 87800018 <_start+0x18>
87800014:	ea00013d 	b	87800510 <__main_from_arm>
87800018:	80200000 	eorhi	r0, r0, r0
8780001c:	00001e41 	andeq	r1, r0, r1, asr #28
87800020:	61656100 	cmnvs	r5, r0, lsl #2
87800024:	01006962 	tsteq	r0, r2, ror #18
87800028:	00000014 	andeq	r0, r0, r4, lsl r0
8780002c:	412d3705 	teqmi	sp, r5, lsl #14
87800030:	070a0600 	streq	r0, [sl, -r0, lsl #12]
87800034:	09010841 	stmdbeq	r1, {r0, r6, fp}
87800038:	00040a02 	andeq	r0, r4, r2, lsl #20

8780003c <clk_enable>:
8780003c:	b480      	push	{r7}
8780003e:	af00      	add	r7, sp, #0
87800040:	f44f 4380 	mov.w	r3, #16384	; 0x4000
87800044:	f2c0 230c 	movt	r3, #524	; 0x20c
87800048:	f04f 32ff 	mov.w	r2, #4294967295	; 0xffffffff
8780004c:	669a      	str	r2, [r3, #104]	; 0x68
8780004e:	f44f 4380 	mov.w	r3, #16384	; 0x4000
87800052:	f2c0 230c 	movt	r3, #524	; 0x20c
87800056:	f04f 32ff 	mov.w	r2, #4294967295	; 0xffffffff
8780005a:	66da      	str	r2, [r3, #108]	; 0x6c
8780005c:	f44f 4380 	mov.w	r3, #16384	; 0x4000
87800060:	f2c0 230c 	movt	r3, #524	; 0x20c
87800064:	f04f 32ff 	mov.w	r2, #4294967295	; 0xffffffff
87800068:	671a      	str	r2, [r3, #112]	; 0x70
8780006a:	f44f 4380 	mov.w	r3, #16384	; 0x4000
8780006e:	f2c0 230c 	movt	r3, #524	; 0x20c
87800072:	f04f 32ff 	mov.w	r2, #4294967295	; 0xffffffff
87800076:	675a      	str	r2, [r3, #116]	; 0x74
87800078:	f44f 4380 	mov.w	r3, #16384	; 0x4000
8780007c:	f2c0 230c 	movt	r3, #524	; 0x20c
87800080:	f04f 32ff 	mov.w	r2, #4294967295	; 0xffffffff
87800084:	679a      	str	r2, [r3, #120]	; 0x78
87800086:	f44f 4380 	mov.w	r3, #16384	; 0x4000
8780008a:	f2c0 230c 	movt	r3, #524	; 0x20c
8780008e:	f04f 32ff 	mov.w	r2, #4294967295	; 0xffffffff
87800092:	67da      	str	r2, [r3, #124]	; 0x7c
87800094:	f44f 4380 	mov.w	r3, #16384	; 0x4000
87800098:	f2c0 230c 	movt	r3, #524	; 0x20c
8780009c:	f04f 32ff 	mov.w	r2, #4294967295	; 0xffffffff
878000a0:	f8c3 2080 	str.w	r2, [r3, #128]	; 0x80
878000a4:	46bd      	mov	sp, r7
878000a6:	f85d 7b04 	ldr.w	r7, [sp], #4
878000aa:	4770      	bx	lr

878000ac <imx6u_clkinit>:
878000ac:	b480      	push	{r7}
878000ae:	b083      	sub	sp, #12
878000b0:	af00      	add	r7, sp, #0
878000b2:	2300      	movs	r3, #0
878000b4:	607b      	str	r3, [r7, #4]
878000b6:	f44f 4380 	mov.w	r3, #16384	; 0x4000
878000ba:	f2c0 230c 	movt	r3, #524	; 0x20c
878000be:	68db      	ldr	r3, [r3, #12]
878000c0:	089b      	lsrs	r3, r3, #2
878000c2:	f003 0301 	and.w	r3, r3, #1
878000c6:	2b00      	cmp	r3, #0
878000c8:	d117      	bne.n	878000fa <imx6u_clkinit+0x4e>
878000ca:	f44f 4380 	mov.w	r3, #16384	; 0x4000
878000ce:	f2c0 230c 	movt	r3, #524	; 0x20c
878000d2:	f44f 4280 	mov.w	r2, #16384	; 0x4000
878000d6:	f2c0 220c 	movt	r2, #524	; 0x20c
878000da:	68d2      	ldr	r2, [r2, #12]
878000dc:	f422 7280 	bic.w	r2, r2, #256	; 0x100
878000e0:	60da      	str	r2, [r3, #12]
878000e2:	f44f 4380 	mov.w	r3, #16384	; 0x4000
878000e6:	f2c0 230c 	movt	r3, #524	; 0x20c
878000ea:	f44f 4280 	mov.w	r2, #16384	; 0x4000
878000ee:	f2c0 220c 	movt	r2, #524	; 0x20c
878000f2:	68d2      	ldr	r2, [r2, #12]
878000f4:	f042 0204 	orr.w	r2, r2, #4
878000f8:	60da      	str	r2, [r3, #12]
878000fa:	f44f 4300 	mov.w	r3, #32768	; 0x8000
878000fe:	f2c0 230c 	movt	r3, #524	; 0x20c
87800102:	f242 0242 	movw	r2, #8258	; 0x2042
87800106:	601a      	str	r2, [r3, #0]
87800108:	f44f 4380 	mov.w	r3, #16384	; 0x4000
8780010c:	f2c0 230c 	movt	r3, #524	; 0x20c
87800110:	f44f 4280 	mov.w	r2, #16384	; 0x4000
87800114:	f2c0 220c 	movt	r2, #524	; 0x20c
87800118:	68d2      	ldr	r2, [r2, #12]
8780011a:	f022 0204 	bic.w	r2, r2, #4
8780011e:	60da      	str	r2, [r3, #12]
87800120:	f44f 4380 	mov.w	r3, #16384	; 0x4000
87800124:	f2c0 230c 	movt	r3, #524	; 0x20c
87800128:	2200      	movs	r2, #0
8780012a:	611a      	str	r2, [r3, #16]
8780012c:	f44f 4300 	mov.w	r3, #32768	; 0x8000
87800130:	f2c0 230c 	movt	r3, #524	; 0x20c
87800134:	f8d3 3100 	ldr.w	r3, [r3, #256]	; 0x100
87800138:	607b      	str	r3, [r7, #4]
8780013a:	687b      	ldr	r3, [r7, #4]
8780013c:	f003 33c0 	and.w	r3, r3, #3233857728	; 0xc0c0c0c0
87800140:	607b      	str	r3, [r7, #4]
87800142:	687b      	ldr	r3, [r7, #4]
87800144:	f043 5300 	orr.w	r3, r3, #536870912	; 0x20000000
87800148:	607b      	str	r3, [r7, #4]
8780014a:	687b      	ldr	r3, [r7, #4]
8780014c:	f443 13c0 	orr.w	r3, r3, #1572864	; 0x180000
87800150:	607b      	str	r3, [r7, #4]
87800152:	687b      	ldr	r3, [r7, #4]
87800154:	f443 5380 	orr.w	r3, r3, #4096	; 0x1000
87800158:	607b      	str	r3, [r7, #4]
8780015a:	687b      	ldr	r3, [r7, #4]
8780015c:	f043 031b 	orr.w	r3, r3, #27
87800160:	607b      	str	r3, [r7, #4]
87800162:	f44f 4300 	mov.w	r3, #32768	; 0x8000
87800166:	f2c0 230c 	movt	r3, #524	; 0x20c
8780016a:	687a      	ldr	r2, [r7, #4]
8780016c:	f8c3 2100 	str.w	r2, [r3, #256]	; 0x100
87800170:	2300      	movs	r3, #0
87800172:	607b      	str	r3, [r7, #4]
87800174:	f44f 4300 	mov.w	r3, #32768	; 0x8000
87800178:	f2c0 230c 	movt	r3, #524	; 0x20c
8780017c:	f8d3 30f0 	ldr.w	r3, [r3, #240]	; 0xf0
87800180:	607b      	str	r3, [r7, #4]
87800182:	687b      	ldr	r3, [r7, #4]
87800184:	f003 33c0 	and.w	r3, r3, #3233857728	; 0xc0c0c0c0
87800188:	607b      	str	r3, [r7, #4]
8780018a:	687b      	ldr	r3, [r7, #4]
8780018c:	f043 5398 	orr.w	r3, r3, #318767104	; 0x13000000
87800190:	607b      	str	r3, [r7, #4]
87800192:	687b      	ldr	r3, [r7, #4]
87800194:	f443 1388 	orr.w	r3, r3, #1114112	; 0x110000
87800198:	607b      	str	r3, [r7, #4]
8780019a:	687b      	ldr	r3, [r7, #4]
8780019c:	f443 5380 	orr.w	r3, r3, #4096	; 0x1000
878001a0:	607b      	str	r3, [r7, #4]
878001a2:	687b      	ldr	r3, [r7, #4]
878001a4:	f043 030c 	orr.w	r3, r3, #12
878001a8:	607b      	str	r3, [r7, #4]
878001aa:	f44f 4300 	mov.w	r3, #32768	; 0x8000
878001ae:	f2c0 230c 	movt	r3, #524	; 0x20c
878001b2:	687a      	ldr	r2, [r7, #4]
878001b4:	f8c3 20f0 	str.w	r2, [r3, #240]	; 0xf0
878001b8:	f44f 4380 	mov.w	r3, #16384	; 0x4000
878001bc:	f2c0 230c 	movt	r3, #524	; 0x20c
878001c0:	f44f 4280 	mov.w	r2, #16384	; 0x4000
878001c4:	f2c0 220c 	movt	r2, #524	; 0x20c
878001c8:	6992      	ldr	r2, [r2, #24]
878001ca:	f422 2240 	bic.w	r2, r2, #786432	; 0xc0000
878001ce:	619a      	str	r2, [r3, #24]
878001d0:	f44f 4380 	mov.w	r3, #16384	; 0x4000
878001d4:	f2c0 230c 	movt	r3, #524	; 0x20c
878001d8:	f44f 4280 	mov.w	r2, #16384	; 0x4000
878001dc:	f2c0 220c 	movt	r2, #524	; 0x20c
878001e0:	6992      	ldr	r2, [r2, #24]
878001e2:	f442 2280 	orr.w	r2, r2, #262144	; 0x40000
878001e6:	619a      	str	r2, [r3, #24]
878001e8:	f44f 4380 	mov.w	r3, #16384	; 0x4000
878001ec:	f2c0 230c 	movt	r3, #524	; 0x20c
878001f0:	f44f 4280 	mov.w	r2, #16384	; 0x4000
878001f4:	f2c0 220c 	movt	r2, #524	; 0x20c
878001f8:	6952      	ldr	r2, [r2, #20]
878001fa:	f022 7200 	bic.w	r2, r2, #33554432	; 0x2000000
878001fe:	615a      	str	r2, [r3, #20]
87800200:	bf00      	nop
87800202:	f44f 4380 	mov.w	r3, #16384	; 0x4000
87800206:	f2c0 230c 	movt	r3, #524	; 0x20c
8780020a:	6c9b      	ldr	r3, [r3, #72]	; 0x48
8780020c:	f003 0320 	and.w	r3, r3, #32
87800210:	2b00      	cmp	r3, #0
87800212:	d1f6      	bne.n	87800202 <imx6u_clkinit+0x156>
87800214:	f44f 4380 	mov.w	r3, #16384	; 0x4000
87800218:	f2c0 230c 	movt	r3, #524	; 0x20c
8780021c:	f44f 4280 	mov.w	r2, #16384	; 0x4000
87800220:	f2c0 220c 	movt	r2, #524	; 0x20c
87800224:	6952      	ldr	r2, [r2, #20]
87800226:	f422 7240 	bic.w	r2, r2, #768	; 0x300
8780022a:	615a      	str	r2, [r3, #20]
8780022c:	f44f 4380 	mov.w	r3, #16384	; 0x4000
87800230:	f2c0 230c 	movt	r3, #524	; 0x20c
87800234:	f44f 4280 	mov.w	r2, #16384	; 0x4000
87800238:	f2c0 220c 	movt	r2, #524	; 0x20c
8780023c:	6952      	ldr	r2, [r2, #20]
8780023e:	f442 7280 	orr.w	r2, r2, #256	; 0x100
87800242:	615a      	str	r2, [r3, #20]
87800244:	f44f 4380 	mov.w	r3, #16384	; 0x4000
87800248:	f2c0 230c 	movt	r3, #524	; 0x20c
8780024c:	f44f 4280 	mov.w	r2, #16384	; 0x4000
87800250:	f2c0 220c 	movt	r2, #524	; 0x20c
87800254:	69d2      	ldr	r2, [r2, #28]
87800256:	f022 0240 	bic.w	r2, r2, #64	; 0x40
8780025a:	61da      	str	r2, [r3, #28]
8780025c:	f44f 4380 	mov.w	r3, #16384	; 0x4000
87800260:	f2c0 230c 	movt	r3, #524	; 0x20c
87800264:	f44f 4280 	mov.w	r2, #16384	; 0x4000
87800268:	f2c0 220c 	movt	r2, #524	; 0x20c
8780026c:	69d2      	ldr	r2, [r2, #28]
8780026e:	f022 0207 	bic.w	r2, r2, #7
87800272:	61da      	str	r2, [r3, #28]
87800274:	370c      	adds	r7, #12
87800276:	46bd      	mov	sp, r7
87800278:	f85d 7b04 	ldr.w	r7, [sp], #4
8780027c:	4770      	bx	lr
8780027e:	bf00      	nop

87800280 <IOMUXC_SetPinMux>:
87800280:	b480      	push	{r7}
87800282:	b085      	sub	sp, #20
87800284:	af00      	add	r7, sp, #0
87800286:	60f8      	str	r0, [r7, #12]
87800288:	60b9      	str	r1, [r7, #8]
8780028a:	607a      	str	r2, [r7, #4]
8780028c:	603b      	str	r3, [r7, #0]
8780028e:	68fb      	ldr	r3, [r7, #12]
87800290:	68ba      	ldr	r2, [r7, #8]
87800292:	f002 010f 	and.w	r1, r2, #15
87800296:	69fa      	ldr	r2, [r7, #28]
87800298:	0112      	lsls	r2, r2, #4
8780029a:	f002 0210 	and.w	r2, r2, #16
8780029e:	430a      	orrs	r2, r1
878002a0:	601a      	str	r2, [r3, #0]
878002a2:	687b      	ldr	r3, [r7, #4]
878002a4:	2b00      	cmp	r3, #0
878002a6:	d004      	beq.n	878002b2 <IOMUXC_SetPinMux+0x32>
878002a8:	687b      	ldr	r3, [r7, #4]
878002aa:	683a      	ldr	r2, [r7, #0]
878002ac:	f002 0207 	and.w	r2, r2, #7
878002b0:	601a      	str	r2, [r3, #0]
878002b2:	3714      	adds	r7, #20
878002b4:	46bd      	mov	sp, r7
878002b6:	f85d 7b04 	ldr.w	r7, [sp], #4
878002ba:	4770      	bx	lr

878002bc <IOMUXC_SetPinConfig>:
878002bc:	b480      	push	{r7}
878002be:	b085      	sub	sp, #20
878002c0:	af00      	add	r7, sp, #0
878002c2:	60f8      	str	r0, [r7, #12]
878002c4:	60b9      	str	r1, [r7, #8]
878002c6:	607a      	str	r2, [r7, #4]
878002c8:	603b      	str	r3, [r7, #0]
878002ca:	69bb      	ldr	r3, [r7, #24]
878002cc:	2b00      	cmp	r3, #0
878002ce:	d002      	beq.n	878002d6 <IOMUXC_SetPinConfig+0x1a>
878002d0:	69bb      	ldr	r3, [r7, #24]
878002d2:	69fa      	ldr	r2, [r7, #28]
878002d4:	601a      	str	r2, [r3, #0]
878002d6:	3714      	adds	r7, #20
878002d8:	46bd      	mov	sp, r7
878002da:	f85d 7b04 	ldr.w	r7, [sp], #4
878002de:	4770      	bx	lr

878002e0 <led_init>:
878002e0:	b580      	push	{r7, lr}
878002e2:	b082      	sub	sp, #8
878002e4:	af02      	add	r7, sp, #8
878002e6:	2300      	movs	r3, #0
878002e8:	9301      	str	r3, [sp, #4]
878002ea:	f44f 733d 	mov.w	r3, #756	; 0x2f4
878002ee:	f2c0 230e 	movt	r3, #526	; 0x20e
878002f2:	9300      	str	r3, [sp, #0]
878002f4:	2300      	movs	r3, #0
878002f6:	2200      	movs	r2, #0
878002f8:	2105      	movs	r1, #5
878002fa:	2068      	movs	r0, #104	; 0x68
878002fc:	f2c0 200e 	movt	r0, #526	; 0x20e
87800300:	f7ff ffbe 	bl	87800280 <IOMUXC_SetPinMux>
87800304:	f241 03b0 	movw	r3, #4272	; 0x10b0
87800308:	9301      	str	r3, [sp, #4]
8780030a:	f44f 733d 	mov.w	r3, #756	; 0x2f4
8780030e:	f2c0 230e 	movt	r3, #526	; 0x20e
87800312:	9300      	str	r3, [sp, #0]
87800314:	2300      	movs	r3, #0
87800316:	2200      	movs	r2, #0
87800318:	2105      	movs	r1, #5
8780031a:	2068      	movs	r0, #104	; 0x68
8780031c:	f2c0 200e 	movt	r0, #526	; 0x20e
87800320:	f7ff ffcc 	bl	878002bc <IOMUXC_SetPinConfig>
87800324:	f44f 4340 	mov.w	r3, #49152	; 0xc000
87800328:	f2c0 2309 	movt	r3, #521	; 0x209
8780032c:	f44f 4240 	mov.w	r2, #49152	; 0xc000
87800330:	f2c0 2209 	movt	r2, #521	; 0x209
87800334:	6852      	ldr	r2, [r2, #4]
87800336:	f042 0208 	orr.w	r2, r2, #8
8780033a:	605a      	str	r2, [r3, #4]
8780033c:	f44f 4340 	mov.w	r3, #49152	; 0xc000
87800340:	f2c0 2309 	movt	r3, #521	; 0x209
87800344:	f44f 4240 	mov.w	r2, #49152	; 0xc000
87800348:	f2c0 2209 	movt	r2, #521	; 0x209
8780034c:	6812      	ldr	r2, [r2, #0]
8780034e:	f022 0208 	bic.w	r2, r2, #8
87800352:	601a      	str	r2, [r3, #0]
87800354:	46bd      	mov	sp, r7
87800356:	bd80      	pop	{r7, pc}

87800358 <led_switch>:
87800358:	b480      	push	{r7}
8780035a:	b083      	sub	sp, #12
8780035c:	af00      	add	r7, sp, #0
8780035e:	6078      	str	r0, [r7, #4]
87800360:	6039      	str	r1, [r7, #0]
87800362:	687b      	ldr	r3, [r7, #4]
87800364:	2b00      	cmp	r3, #0
87800366:	d11f      	bne.n	878003a8 <led_switch+0x50>
87800368:	683b      	ldr	r3, [r7, #0]
8780036a:	2b01      	cmp	r3, #1
8780036c:	d10c      	bne.n	87800388 <led_switch+0x30>
8780036e:	f44f 4340 	mov.w	r3, #49152	; 0xc000
87800372:	f2c0 2309 	movt	r3, #521	; 0x209
87800376:	f44f 4240 	mov.w	r2, #49152	; 0xc000
8780037a:	f2c0 2209 	movt	r2, #521	; 0x209
8780037e:	6812      	ldr	r2, [r2, #0]
87800380:	f022 0208 	bic.w	r2, r2, #8
87800384:	601a      	str	r2, [r3, #0]
87800386:	e00e      	b.n	878003a6 <led_switch+0x4e>
87800388:	683b      	ldr	r3, [r7, #0]
8780038a:	2b00      	cmp	r3, #0
8780038c:	d10b      	bne.n	878003a6 <led_switch+0x4e>
8780038e:	f44f 4340 	mov.w	r3, #49152	; 0xc000
87800392:	f2c0 2309 	movt	r3, #521	; 0x209
87800396:	f44f 4240 	mov.w	r2, #49152	; 0xc000
8780039a:	f2c0 2209 	movt	r2, #521	; 0x209
8780039e:	6812      	ldr	r2, [r2, #0]
878003a0:	f042 0208 	orr.w	r2, r2, #8
878003a4:	601a      	str	r2, [r3, #0]
878003a6:	bf00      	nop
878003a8:	370c      	adds	r7, #12
878003aa:	46bd      	mov	sp, r7
878003ac:	f85d 7b04 	ldr.w	r7, [sp], #4
878003b0:	4770      	bx	lr
878003b2:	bf00      	nop

878003b4 <delay_init>:
878003b4:	b480      	push	{r7}
878003b6:	af00      	add	r7, sp, #0
878003b8:	f44f 4300 	mov.w	r3, #32768	; 0x8000
878003bc:	f2c0 2309 	movt	r3, #521	; 0x209
878003c0:	2200      	movs	r2, #0
878003c2:	601a      	str	r2, [r3, #0]
878003c4:	f44f 4300 	mov.w	r3, #32768	; 0x8000
878003c8:	f2c0 2309 	movt	r3, #521	; 0x209
878003cc:	f44f 4200 	mov.w	r2, #32768	; 0x8000
878003d0:	601a      	str	r2, [r3, #0]
878003d2:	bf00      	nop
878003d4:	f44f 4300 	mov.w	r3, #32768	; 0x8000
878003d8:	f2c0 2309 	movt	r3, #521	; 0x209
878003dc:	681b      	ldr	r3, [r3, #0]
878003de:	0bdb      	lsrs	r3, r3, #15
878003e0:	f003 0301 	and.w	r3, r3, #1
878003e4:	2b00      	cmp	r3, #0
878003e6:	d1f5      	bne.n	878003d4 <delay_init+0x20>
878003e8:	f44f 4300 	mov.w	r3, #32768	; 0x8000
878003ec:	f2c0 2309 	movt	r3, #521	; 0x209
878003f0:	2240      	movs	r2, #64	; 0x40
878003f2:	601a      	str	r2, [r3, #0]
878003f4:	f44f 4300 	mov.w	r3, #32768	; 0x8000
878003f8:	f2c0 2309 	movt	r3, #521	; 0x209
878003fc:	2241      	movs	r2, #65	; 0x41
878003fe:	605a      	str	r2, [r3, #4]
87800400:	f44f 4300 	mov.w	r3, #32768	; 0x8000
87800404:	f2c0 2309 	movt	r3, #521	; 0x209
87800408:	f04f 32ff 	mov.w	r2, #4294967295	; 0xffffffff
8780040c:	611a      	str	r2, [r3, #16]
8780040e:	f44f 4300 	mov.w	r3, #32768	; 0x8000
87800412:	f2c0 2309 	movt	r3, #521	; 0x209
87800416:	f44f 4200 	mov.w	r2, #32768	; 0x8000
8780041a:	f2c0 2209 	movt	r2, #521	; 0x209
8780041e:	6812      	ldr	r2, [r2, #0]
87800420:	f042 0201 	orr.w	r2, r2, #1
87800424:	601a      	str	r2, [r3, #0]
87800426:	46bd      	mov	sp, r7
87800428:	f85d 7b04 	ldr.w	r7, [sp], #4
8780042c:	4770      	bx	lr
8780042e:	bf00      	nop

87800430 <delayus>:
87800430:	b480      	push	{r7}
87800432:	b087      	sub	sp, #28
87800434:	af00      	add	r7, sp, #0
87800436:	6078      	str	r0, [r7, #4]
87800438:	2300      	movs	r3, #0
8780043a:	613b      	str	r3, [r7, #16]
8780043c:	f44f 4300 	mov.w	r3, #32768	; 0x8000
87800440:	f2c0 2309 	movt	r3, #521	; 0x209
87800444:	6a5b      	ldr	r3, [r3, #36]	; 0x24
87800446:	617b      	str	r3, [r7, #20]
87800448:	f44f 4300 	mov.w	r3, #32768	; 0x8000
8780044c:	f2c0 2309 	movt	r3, #521	; 0x209
87800450:	6a5b      	ldr	r3, [r3, #36]	; 0x24
87800452:	60fb      	str	r3, [r7, #12]
87800454:	68fa      	ldr	r2, [r7, #12]
87800456:	697b      	ldr	r3, [r7, #20]
87800458:	429a      	cmp	r2, r3
8780045a:	d018      	beq.n	8780048e <delayus+0x5e>
8780045c:	68fa      	ldr	r2, [r7, #12]
8780045e:	697b      	ldr	r3, [r7, #20]
87800460:	429a      	cmp	r2, r3
87800462:	d906      	bls.n	87800472 <delayus+0x42>
87800464:	68fa      	ldr	r2, [r7, #12]
87800466:	697b      	ldr	r3, [r7, #20]
87800468:	1ad3      	subs	r3, r2, r3
8780046a:	693a      	ldr	r2, [r7, #16]
8780046c:	4413      	add	r3, r2
8780046e:	613b      	str	r3, [r7, #16]
87800470:	e006      	b.n	87800480 <delayus+0x50>
87800472:	68fa      	ldr	r2, [r7, #12]
87800474:	697b      	ldr	r3, [r7, #20]
87800476:	1ad2      	subs	r2, r2, r3
87800478:	693b      	ldr	r3, [r7, #16]
8780047a:	4413      	add	r3, r2
8780047c:	3b01      	subs	r3, #1
8780047e:	613b      	str	r3, [r7, #16]
87800480:	68fb      	ldr	r3, [r7, #12]
87800482:	617b      	str	r3, [r7, #20]
87800484:	693a      	ldr	r2, [r7, #16]
87800486:	687b      	ldr	r3, [r7, #4]
87800488:	429a      	cmp	r2, r3
8780048a:	d300      	bcc.n	8780048e <delayus+0x5e>
8780048c:	e000      	b.n	87800490 <delayus+0x60>
8780048e:	e7db      	b.n	87800448 <delayus+0x18>
87800490:	371c      	adds	r7, #28
87800492:	46bd      	mov	sp, r7
87800494:	f85d 7b04 	ldr.w	r7, [sp], #4
87800498:	4770      	bx	lr
8780049a:	bf00      	nop

8780049c <delayms>:
8780049c:	b580      	push	{r7, lr}
8780049e:	b084      	sub	sp, #16
878004a0:	af00      	add	r7, sp, #0
878004a2:	6078      	str	r0, [r7, #4]
878004a4:	2300      	movs	r3, #0
878004a6:	60fb      	str	r3, [r7, #12]
878004a8:	2300      	movs	r3, #0
878004aa:	60fb      	str	r3, [r7, #12]
878004ac:	e006      	b.n	878004bc <delayms+0x20>
878004ae:	f44f 707a 	mov.w	r0, #1000	; 0x3e8
878004b2:	f7ff ffbd 	bl	87800430 <delayus>
878004b6:	68fb      	ldr	r3, [r7, #12]
878004b8:	3301      	adds	r3, #1
878004ba:	60fb      	str	r3, [r7, #12]
878004bc:	68fa      	ldr	r2, [r7, #12]
878004be:	687b      	ldr	r3, [r7, #4]
878004c0:	429a      	cmp	r2, r3
878004c2:	d3f4      	bcc.n	878004ae <delayms+0x12>
878004c4:	3710      	adds	r7, #16
878004c6:	46bd      	mov	sp, r7
878004c8:	bd80      	pop	{r7, pc}
878004ca:	bf00      	nop

878004cc <delay_short>:
878004cc:	b480      	push	{r7}
878004ce:	b083      	sub	sp, #12
878004d0:	af00      	add	r7, sp, #0
878004d2:	6078      	str	r0, [r7, #4]
878004d4:	bf00      	nop
878004d6:	687b      	ldr	r3, [r7, #4]
878004d8:	1e5a      	subs	r2, r3, #1
878004da:	607a      	str	r2, [r7, #4]
878004dc:	2b00      	cmp	r3, #0
878004de:	d1fa      	bne.n	878004d6 <delay_short+0xa>
878004e0:	370c      	adds	r7, #12
878004e2:	46bd      	mov	sp, r7
878004e4:	f85d 7b04 	ldr.w	r7, [sp], #4
878004e8:	4770      	bx	lr
878004ea:	bf00      	nop

878004ec <delay>:
878004ec:	b580      	push	{r7, lr}
878004ee:	b082      	sub	sp, #8
878004f0:	af00      	add	r7, sp, #0
878004f2:	6078      	str	r0, [r7, #4]
878004f4:	e003      	b.n	878004fe <delay+0x12>
878004f6:	f240 70ff 	movw	r0, #2047	; 0x7ff
878004fa:	f7ff ffe7 	bl	878004cc <delay_short>
878004fe:	687b      	ldr	r3, [r7, #4]
87800500:	1e5a      	subs	r2, r3, #1
87800502:	607a      	str	r2, [r7, #4]
87800504:	2b00      	cmp	r3, #0
87800506:	d1f6      	bne.n	878004f6 <delay+0xa>
87800508:	3708      	adds	r7, #8
8780050a:	46bd      	mov	sp, r7
8780050c:	bd80      	pop	{r7, pc}
8780050e:	bf00      	nop

87800510 <__main_from_arm>:
87800510:	e51ff004 	ldr	pc, [pc, #-4]	; 87800514 <__main_from_arm+0x4>
87800514:	87800519 	usada8hi	r0, r9, r5, r0

Disassembly of section .text.startup:

87800518 <main>:
87800518:	b508      	push	{r3, lr}
8780051a:	f7ff fd8f 	bl	8780003c <clk_enable>
8780051e:	f7ff fedf 	bl	878002e0 <led_init>
87800522:	2101      	movs	r1, #1
87800524:	2000      	movs	r0, #0
87800526:	f7ff ff17 	bl	87800358 <led_switch>
8780052a:	f44f 70fa 	mov.w	r0, #500	; 0x1f4
8780052e:	f7ff ffdd 	bl	878004ec <delay>
87800532:	2100      	movs	r1, #0
87800534:	4608      	mov	r0, r1
87800536:	f7ff ff0f 	bl	87800358 <led_switch>
8780053a:	f44f 70fa 	mov.w	r0, #500	; 0x1f4
8780053e:	f7ff ffd5 	bl	878004ec <delay>
87800542:	e7ee      	b.n	87800522 <main+0xa>

Disassembly of section .comment:

00000000 <.comment>:
   0:	3a434347 	bcc	10d0d24 <_start-0x8672f2dc>
   4:	694c2820 	stmdbvs	ip, {r5, fp, sp}^
   8:	6f72616e 	svcvs	0x0072616e
   c:	43434720 	movtmi	r4, #14112	; 0x3720
  10:	392e3420 	stmdbcc	lr!, {r5, sl, ip, sp}
  14:	3130322d 	teqcc	r0, sp, lsr #4
  18:	31302e37 	teqcc	r0, r7, lsr lr
  1c:	2e342029 	cdpcs	0, 3, cr2, cr4, cr9, {1}
  20:	00342e39 	eorseq	r2, r4, r9, lsr lr

Disassembly of section .ARM.attributes:

00000000 <.ARM.attributes>:
   0:	00003041 	andeq	r3, r0, r1, asr #32
   4:	61656100 	cmnvs	r5, r0, lsl #2
   8:	01006962 	tsteq	r0, r2, ror #18
   c:	00000026 	andeq	r0, r0, r6, lsr #32
  10:	412d3705 	teqmi	sp, r5, lsl #14
  14:	070a0600 	streq	r0, [sl, -r0, lsl #12]
  18:	09010841 	stmdbeq	r1, {r0, r6, fp}
  1c:	12040a02 	andne	r0, r4, #8192	; 0x2000
  20:	15011404 	strne	r1, [r1, #-1028]	; 0x404
  24:	18031701 	stmdane	r3, {r0, r8, r9, sl, ip}
  28:	1b021a01 	blne	86834 <_start-0x877797cc>
  2c:	22011c03 	andcs	r1, r1, #768	; 0x300
  30:	Address 0x0000000000000030 is out of bounds.


Disassembly of section .debug_info:

00000000 <.debug_info>:
   0:	00000622 	andeq	r0, r0, r2, lsr #12
   4:	00000004 	andeq	r0, r0, r4
   8:	01040000 	mrseq	r0, (UNDEF: 4)
   c:	000001ff 	strdeq	r0, [r0], -pc	; <UNPREDICTABLE>
  10:	0000fb01 	andeq	pc, r0, r1, lsl #22
  14:	0002be00 	andeq	fp, r2, r0, lsl #28
  18:	80003c00 	andhi	r3, r0, r0, lsl #24
  1c:	00024287 	andeq	r4, r2, r7, lsl #5
  20:	00000000 	andeq	r0, r0, r0
  24:	06010200 	streq	r0, [r1], -r0, lsl #4
  28:	000001e5 	andeq	r0, r0, r5, ror #3
  2c:	60050202 	andvs	r0, r5, r2, lsl #4
  30:	03000000 	movweq	r0, #0
  34:	6e690504 	cdpvs	5, 6, cr0, cr9, cr4, {0}
  38:	0f040074 	svceq	0x00040074
  3c:	02000001 	andeq	r0, r0, #1
  40:	0000451a 	andeq	r4, r0, sl, lsl r5
  44:	08010200 	stmdaeq	r1, {r9}
  48:	000001e3 	andeq	r0, r0, r3, ror #3
  4c:	15070202 	strne	r0, [r7, #-514]	; 0x202
  50:	04000003 	streq	r0, [r0], #-3
  54:	0000029b 	muleq	r0, fp, r2
  58:	005e1c02 	subseq	r1, lr, r2, lsl #24
  5c:	04020000 	streq	r0, [r2], #-0
  60:	00028907 	andeq	r8, r2, r7, lsl #18
  64:	07080200 	streq	r0, [r8, -r0, lsl #4]
  68:	0000027f 	andeq	r0, r0, pc, ror r2
  6c:	50050802 	andpl	r0, r5, r2, lsl #16
  70:	02000001 	andeq	r0, r0, #1
  74:	042b0704 	strteq	r0, [fp], #-1796	; 0x704
  78:	3a050000 	bcc	140080 <_start-0x876bff80>
  7c:	8a000000 	bhi	84 <_start-0x877fff7c>
  80:	06000000 	streq	r0, [r0], -r0
  84:	00000073 	andeq	r0, r0, r3, ror r0
  88:	53070003 	movwpl	r0, #28675	; 0x7003
  8c:	05000000 	streq	r0, [r0, #-0]
  90:	0000003a 	andeq	r0, r0, sl, lsr r0
  94:	0000009f 	muleq	r0, pc, r0	; <UNPREDICTABLE>
  98:	00007306 	andeq	r7, r0, r6, lsl #6
  9c:	05000b00 	streq	r0, [r0, #-2816]	; 0xb00
  a0:	0000003a 	andeq	r0, r0, sl, lsr r0
  a4:	000000af 	andeq	r0, r0, pc, lsr #1
  a8:	00007306 	andeq	r7, r0, r6, lsl #6
  ac:	05001b00 	streq	r1, [r0, #-2816]	; 0xb00
  b0:	0000003a 	andeq	r0, r0, sl, lsr r0
  b4:	000000bf 	strheq	r0, [r0], -pc	; <UNPREDICTABLE>
  b8:	00007306 	andeq	r7, r0, r6, lsl #6
  bc:	08000700 	stmdaeq	r0, {r8, r9, sl}
  c0:	1b6a038c 	blne	1a80ef8 <_start-0x85d7f108>
  c4:	00000276 	andeq	r0, r0, r6, ror r2
  c8:	52434309 	subpl	r4, r3, #603979776	; 0x24000000
  cc:	1b6b0300 	blne	1ac0cd4 <_start-0x85d3f32c>
  d0:	0000008a 	andeq	r0, r0, sl, lsl #1
  d4:	03100a00 	tsteq	r0, #0, 20
  d8:	6c030000 	stcvs	0, cr0, [r3], {-0}
  dc:	00008a1b 	andeq	r8, r0, fp, lsl sl
  e0:	43090400 	movwmi	r0, #37888	; 0x9400
  e4:	03005253 	movweq	r5, #595	; 0x253
  e8:	008a1b6d 	addeq	r1, sl, sp, ror #22
  ec:	0a080000 	beq	2000f4 <_start-0x875fff0c>
  f0:	00000388 	andeq	r0, r0, r8, lsl #7
  f4:	8a1b6e03 	bhi	6db908 <_start-0x871246f8>
  f8:	0c000000 	stceq	0, cr0, [r0], {-0}
  fc:	00040d0a 	andeq	r0, r4, sl, lsl #26
 100:	1b6f0300 	blne	1bc0d08 <_start-0x85c3f2f8>
 104:	0000008a 	andeq	r0, r0, sl, lsl #1
 108:	01960a10 	orrseq	r0, r6, r0, lsl sl
 10c:	70030000 	andvc	r0, r3, r0
 110:	00008a1b 	andeq	r8, r0, fp, lsl sl
 114:	820a1400 	andhi	r1, sl, #0, 8
 118:	03000003 	movweq	r0, #3
 11c:	008a1b71 	addeq	r1, sl, r1, ror fp
 120:	0a180000 	beq	600128 <_start-0x871ffed8>
 124:	00000479 	andeq	r0, r0, r9, ror r4
 128:	8a1b7203 	bhi	6dc93c <_start-0x871236c4>
 12c:	1c000000 	stcne	0, cr0, [r0], {-0}
 130:	00000c0a 	andeq	r0, r0, sl, lsl #24
 134:	1b730300 	blne	1cc0d3c <_start-0x85b3f2c4>
 138:	0000008a 	andeq	r0, r0, sl, lsl #1
 13c:	00340a20 	eorseq	r0, r4, r0, lsr #20
 140:	74030000 	strvc	r0, [r3], #-0
 144:	00008a1b 	andeq	r8, r0, fp, lsl sl
 148:	530a2400 	movwpl	r2, #41984	; 0xa400
 14c:	03000004 	movweq	r0, #4
 150:	008a1b75 	addeq	r1, sl, r5, ror fp
 154:	0a280000 	beq	a0015c <_start-0x86dffea4>
 158:	000000ad 	andeq	r0, r0, sp, lsr #1
 15c:	8a1b7603 	bhi	6dd970 <_start-0x87122690>
 160:	2c000000 	stccs	0, cr0, [r0], {-0}
 164:	00044d0a 	andeq	r4, r4, sl, lsl #26
 168:	1b770300 	blne	1dc0d70 <_start-0x85a3f290>
 16c:	0000008a 	andeq	r0, r0, sl, lsl #1
 170:	030d0a30 	movweq	r0, #55856	; 0xda30
 174:	78030000 	stmdavc	r3, {}	; <UNPREDICTABLE>
 178:	00008a1b 	andeq	r8, r0, fp, lsl sl
 17c:	780a3400 	stmdavc	sl, {sl, ip, sp}
 180:	03000002 	movweq	r0, #2
 184:	008a1b79 	addeq	r1, sl, r9, ror fp
 188:	0a380000 	beq	e00190 <_start-0x869ffe70>
 18c:	00000047 	andeq	r0, r0, r7, asr #32
 190:	8a1b7a03 	bhi	6de9a4 <_start-0x8712165c>
 194:	3c000000 	stccc	0, cr0, [r0], {-0}
 198:	0003930a 	andeq	r9, r3, sl, lsl #6
 19c:	1b7b0300 	blne	1ec0da4 <_start-0x8593f25c>
 1a0:	000000af 	andeq	r0, r0, pc, lsr #1
 1a4:	001f0a40 	andseq	r0, pc, r0, asr #20
 1a8:	7c030000 	stcvc	0, cr0, [r3], {-0}
 1ac:	00008a1b 	andeq	r8, r0, fp, lsl sl
 1b0:	9e0a4800 	cdpls	8, 0, cr4, cr10, cr0, {0}
 1b4:	03000003 	movweq	r0, #3
 1b8:	00af1b7d 	adceq	r1, pc, sp, ror fp	; <UNPREDICTABLE>
 1bc:	0a4c0000 	beq	13001c4 <_start-0x864ffe3c>
 1c0:	000000d0 	ldrdeq	r0, [r0], -r0	; <UNPREDICTABLE>
 1c4:	8a1b7e03 	bhi	6df9d8 <_start-0x87120628>
 1c8:	54000000 	strpl	r0, [r0], #-0
 1cc:	00004e0a 	andeq	r4, r0, sl, lsl #28
 1d0:	1b7f0300 	blne	1fc0dd8 <_start-0x8583f228>
 1d4:	0000008a 	andeq	r0, r0, sl, lsl #1
 1d8:	02960a58 	addseq	r0, r6, #88, 20	; 0x58000
 1dc:	80030000 	andhi	r0, r3, r0
 1e0:	00008a1b 	andeq	r8, r0, fp, lsl sl
 1e4:	170a5c00 	strne	r5, [sl, -r0, lsl #24]
 1e8:	03000001 	movweq	r0, #1
 1ec:	008a1b81 	addeq	r1, sl, r1, lsl #23
 1f0:	0a600000 	beq	18001f8 <_start-0x85fffe08>
 1f4:	00000273 	andeq	r0, r0, r3, ror r2
 1f8:	8a1b8203 	bhi	6e0a0c <_start-0x8711f5f4>
 1fc:	64000000 	strvs	r0, [r0], #-0
 200:	00038d0a 	andeq	r8, r3, sl, lsl #26
 204:	1b830300 	blne	fe0c0e0c <__bss_end+0x768c08c8>
 208:	0000008a 	andeq	r0, r0, sl, lsl #1
 20c:	04800a68 	streq	r0, [r0], #2664	; 0xa68
 210:	84030000 	strhi	r0, [r3], #-0
 214:	00008a1b 	andeq	r8, r0, fp, lsl sl
 218:	900a6c00 	andls	r6, sl, r0, lsl #24
 21c:	03000004 	movweq	r0, #4
 220:	008a1b85 	addeq	r1, sl, r5, lsl #23
 224:	0a700000 	beq	1c0022c <_start-0x85bffdd4>
 228:	00000496 	muleq	r0, r6, r4
 22c:	8a1b8603 	bhi	6e1a40 <_start-0x8711e5c0>
 230:	74000000 	strvc	r0, [r0], #-0
 234:	0004a80a 	andeq	sl, r4, sl, lsl #16
 238:	1b870300 	blne	fe1c0e40 <__bss_end+0x769c08fc>
 23c:	0000008a 	andeq	r0, r0, sl, lsl #1
 240:	04ae0a78 	strteq	r0, [lr], #2680	; 0xa78
 244:	88030000 	stmdahi	r3, {}	; <UNPREDICTABLE>
 248:	00008a1b 	andeq	r8, r0, fp, lsl sl
 24c:	b40a7c00 	strlt	r7, [sl], #-3072	; 0xc00
 250:	03000004 	movweq	r0, #4
 254:	008a1b89 	addeq	r1, sl, r9, lsl #23
 258:	0a800000 	beq	fe000260 <__bss_end+0x767ffd1c>
 25c:	000003a9 	andeq	r0, r0, r9, lsr #7
 260:	7a1b8a03 	bvc	6e2a74 <_start-0x8711d58c>
 264:	84000000 	strhi	r0, [r0], #-0
 268:	0004730a 	andeq	r7, r4, sl, lsl #6
 26c:	1b8b0300 	blne	fe2c0e74 <__bss_end+0x76ac0930>
 270:	0000008a 	andeq	r0, r0, sl, lsl #1
 274:	a90b0088 	stmdbge	fp, {r3, r7}
 278:	03000001 	movweq	r0, #1
 27c:	00bf1b8c 	adcseq	r1, pc, ip, lsl #23
 280:	800c0000 	andhi	r0, ip, r0
 284:	1ed00301 	cdpne	3, 13, cr0, cr0, cr1, {0}
 288:	000005d1 	ldrdeq	r0, [r0], -r1
 28c:	0001740a 	andeq	r7, r1, sl, lsl #8
 290:	1ed10300 	cdpne	3, 13, cr0, cr1, cr0, {0}
 294:	0000008a 	andeq	r0, r0, sl, lsl #1
 298:	049c0a00 	ldreq	r0, [ip], #2560	; 0xa00
 29c:	d2030000 	andle	r0, r3, #0
 2a0:	00008a1e 	andeq	r8, r0, lr, lsl sl
 2a4:	000a0400 	andeq	r0, sl, r0, lsl #8
 2a8:	03000000 	movweq	r0, #0
 2ac:	008a1ed3 	ldrdeq	r1, [sl], r3
 2b0:	0a080000 	beq	2002b8 <_start-0x875ffd48>
 2b4:	000003e0 	andeq	r0, r0, r0, ror #7
 2b8:	8a1ed403 	bhi	7b52cc <_start-0x8704ad34>
 2bc:	0c000000 	stceq	0, cr0, [r0], {-0}
 2c0:	0001bf0a 	andeq	fp, r1, sl, lsl #30
 2c4:	1ed50300 	cdpne	3, 13, cr0, cr5, cr0, {0}
 2c8:	0000008a 	andeq	r0, r0, sl, lsl #1
 2cc:	019c0a10 	orrseq	r0, ip, r0, lsl sl
 2d0:	d6030000 	strle	r0, [r3], -r0
 2d4:	00008a1e 	andeq	r8, r0, lr, lsl sl
 2d8:	530a1400 	movwpl	r1, #41984	; 0xa400
 2dc:	03000000 	movweq	r0, #0
 2e0:	008a1ed7 	ldrdeq	r1, [sl], r7
 2e4:	0a180000 	beq	6002ec <_start-0x871ffd14>
 2e8:	00000434 	andeq	r0, r0, r4, lsr r4
 2ec:	8a1ed803 	bhi	7b6300 <_start-0x87049d00>
 2f0:	1c000000 	stcne	0, cr0, [r0], {-0}
 2f4:	0001c80a 	andeq	ip, r1, sl, lsl #16
 2f8:	1ed90300 	cdpne	3, 13, cr0, cr9, cr0, {0}
 2fc:	0000008a 	andeq	r0, r0, sl, lsl #1
 300:	03750a20 	cmneq	r5, #32, 20	; 0x20000
 304:	da030000 	ble	c030c <_start-0x8773fcf4>
 308:	00008a1e 	andeq	r8, r0, lr, lsl sl
 30c:	b20a2400 	andlt	r2, sl, #0, 8
 310:	03000001 	movweq	r0, #1
 314:	008a1edb 	ldrdeq	r1, [sl], fp
 318:	0a280000 	beq	a00320 <_start-0x86dffce0>
 31c:	000000ee 	andeq	r0, r0, lr, ror #1
 320:	8a1edc03 	bhi	7b7334 <_start-0x87048ccc>
 324:	2c000000 	stccs	0, cr0, [r0], {-0}
 328:	0001860a 	andeq	r8, r1, sl, lsl #12
 32c:	1edd0300 	cdpne	3, 13, cr0, cr13, cr0, {0}
 330:	0000008a 	andeq	r0, r0, sl, lsl #1
 334:	03280a30 	teqeq	r8, #48, 20	; 0x30000
 338:	de030000 	cdple	0, 0, cr0, cr3, cr0, {0}
 33c:	00008a1e 	andeq	r8, r0, lr, lsl sl
 340:	130a3400 	movwne	r3, #41984	; 0xa400
 344:	03000000 	movweq	r0, #0
 348:	008a1edf 	ldrdeq	r1, [sl], pc	; <UNPREDICTABLE>
 34c:	0a380000 	beq	e00354 <_start-0x869ffcac>
 350:	0000008d 	andeq	r0, r0, sp, lsl #1
 354:	8a1ee003 	bhi	7b8368 <_start-0x87047c98>
 358:	3c000000 	stccc	0, cr0, [r0], {-0}
 35c:	0001290a 	andeq	r2, r1, sl, lsl #18
 360:	1ee10300 	cdpne	3, 14, cr0, cr1, cr0, {0}
 364:	0000008a 	andeq	r0, r0, sl, lsl #1
 368:	03930a40 	orrseq	r0, r3, #64, 20	; 0x40000
 36c:	e2030000 	and	r0, r3, #0
 370:	00008f1e 	andeq	r8, r0, lr, lsl pc
 374:	410a4400 	tstmi	sl, r0, lsl #8
 378:	03000004 	movweq	r0, #4
 37c:	008a1ee3 	addeq	r1, sl, r3, ror #29
 380:	0a500000 	beq	1400388 <_start-0x863ffc78>
 384:	0000039e 	muleq	r0, lr, r3
 388:	8f1ee403 	svchi	0x001ee403
 38c:	54000000 	strpl	r0, [r0], #-0
 390:	0003340a 	andeq	r3, r3, sl, lsl #8
 394:	1ee50300 	cdpne	3, 14, cr0, cr5, cr0, {0}
 398:	0000008a 	andeq	r0, r0, sl, lsl #1
 39c:	03a90a60 			; <UNDEFINED> instruction: 0x03a90a60
 3a0:	e6030000 	str	r0, [r3], -r0
 3a4:	00008f1e 	andeq	r8, r0, lr, lsl pc
 3a8:	860a6400 	strhi	r6, [sl], -r0, lsl #8
 3ac:	03000004 	movweq	r0, #4
 3b0:	008a1ee7 	addeq	r1, sl, r7, ror #29
 3b4:	0a700000 	beq	1c003bc <_start-0x85bffc44>
 3b8:	0000015e 	andeq	r0, r0, lr, asr r1
 3bc:	8a1ee803 	bhi	7ba3d0 <_start-0x87045c30>
 3c0:	74000000 	strvc	r0, [r0], #-0
 3c4:	0000260a 	andeq	r2, r0, sl, lsl #12
 3c8:	1ee90300 	cdpne	3, 14, cr0, cr9, cr0, {0}
 3cc:	0000008a 	andeq	r0, r0, sl, lsl #1
 3d0:	03f50a78 	mvnseq	r0, #120, 20	; 0x78000
 3d4:	ea030000 	b	c03dc <_start-0x8773fc24>
 3d8:	00008a1e 	andeq	r8, r0, lr, lsl sl
 3dc:	1d0a7c00 	stcne	12, cr7, [sl, #-0]
 3e0:	03000004 	movweq	r0, #4
 3e4:	008a1eeb 	addeq	r1, sl, fp, ror #29
 3e8:	0a800000 	beq	fe0003f0 <__bss_end+0x767ffeac>
 3ec:	000003b4 			; <UNDEFINED> instruction: 0x000003b4
 3f0:	8f1eec03 	svchi	0x001eec03
 3f4:	84000000 	strhi	r0, [r0], #-0
 3f8:	0003580a 	andeq	r5, r3, sl, lsl #16
 3fc:	1eed0300 	cdpne	3, 14, cr0, cr13, cr0, {0}
 400:	0000008a 	andeq	r0, r0, sl, lsl #1
 404:	03bf0a90 			; <UNDEFINED> instruction: 0x03bf0a90
 408:	ee030000 	cdp	0, 0, cr0, cr3, cr0, {0}
 40c:	00008f1e 	andeq	r8, r0, lr, lsl pc
 410:	990a9400 	stmdbls	sl, {sl, ip, pc}
 414:	03000000 	movweq	r0, #0
 418:	008a1eef 	addeq	r1, sl, pc, ror #29
 41c:	0aa00000 	beq	fe800424 <__bss_end+0x76fffee0>
 420:	000001f1 	strdeq	r0, [r0], -r1
 424:	8a1ef003 	bhi	7bc438 <_start-0x87043bc8>
 428:	a4000000 	strge	r0, [r0], #-0
 42c:	0000d60a 	andeq	sp, r0, sl, lsl #12
 430:	1ef10300 	cdpne	3, 15, cr0, cr1, cr0, {0}
 434:	0000008a 	andeq	r0, r0, sl, lsl #1
 438:	04ba0aa8 	ldrteq	r0, [sl], #2728	; 0xaa8
 43c:	f2030000 	vhadd.s8	d0, d3, d0
 440:	00008a1e 	andeq	r8, r0, lr, lsl sl
 444:	420aac00 	andmi	sl, sl, #0, 24
 448:	03000001 	movweq	r0, #1
 44c:	008a1ef3 	strdeq	r1, [sl], r3
 450:	0ab00000 	beq	fec00458 <__bss_end+0x773fff14>
 454:	000003ca 	andeq	r0, r0, sl, asr #7
 458:	8f1ef403 	svchi	0x001ef403
 45c:	b4000000 	strlt	r0, [r0], #-0
 460:	0002a40a 	andeq	sl, r2, sl, lsl #8
 464:	1ef50300 	cdpne	3, 15, cr0, cr5, cr0, {0}
 468:	0000008a 	andeq	r0, r0, sl, lsl #1
 46c:	03d50ac0 	bicseq	r0, r5, #192, 20	; 0xc0000
 470:	f6030000 			; <UNDEFINED> instruction: 0xf6030000
 474:	00009f1e 	andeq	r9, r0, lr, lsl pc
 478:	ec0ac400 	cfstrs	mvf12, [sl], {-0}
 47c:	03000003 	movweq	r0, #3
 480:	008a1ef7 	strdeq	r1, [sl], r7
 484:	0ae00000 	beq	ff80048c <__bss_end+0x77ffff48>
 488:	00000368 	andeq	r0, r0, r8, ror #6
 48c:	8a1ef803 	bhi	7be4a0 <_start-0x87041b60>
 490:	e4000000 	str	r0, [r0], #-0
 494:	0000800a 	andeq	r8, r0, sl
 498:	1ef90300 	cdpne	3, 15, cr0, cr9, cr0, {0}
 49c:	0000008a 	andeq	r0, r0, sl, lsl #1
 4a0:	04660ae8 	strbteq	r0, [r6], #-2792	; 0xae8
 4a4:	fa030000 	blx	c04ac <_start-0x8773fb54>
 4a8:	00008a1e 	andeq	r8, r0, lr, lsl sl
 4ac:	8e0aec00 	cdphi	12, 0, cr14, cr10, cr0, {0}
 4b0:	03000001 	movweq	r0, #1
 4b4:	008a1efb 	strdeq	r1, [sl], fp
 4b8:	0af00000 	beq	ffc004c0 <__bss_end+0x783fff7c>
 4bc:	00000301 	andeq	r0, r0, r1, lsl #6
 4c0:	8a1efc03 	bhi	7bf4d4 <_start-0x87040b2c>
 4c4:	f4000000 	vst4.8	{d0-d3}, [r0], r0
 4c8:	00011d0a 	andeq	r1, r1, sl, lsl #26
 4cc:	1efd0300 	cdpne	3, 15, cr0, cr13, cr0, {0}
 4d0:	0000008a 	andeq	r0, r0, sl, lsl #1
 4d4:	003b0af8 	ldrshteq	r0, [fp], -r8
 4d8:	fe030000 	cdp2	0, 0, cr0, cr3, cr0, {0}
 4dc:	00008a1e 	andeq	r8, r0, lr, lsl sl
 4e0:	6c0dfc00 	stcvs	12, cr15, [sp], {-0}
 4e4:	03000001 	movweq	r0, #1
 4e8:	008a1eff 	strdeq	r1, [sl], pc	; <UNPREDICTABLE>
 4ec:	01000000 	mrseq	r0, (UNDEF: 0)
 4f0:	00045a0d 	andeq	r5, r4, sp, lsl #20
 4f4:	1f000300 	svcne	0x00000300
 4f8:	0000008a 	andeq	r0, r0, sl, lsl #1
 4fc:	4c0d0104 	stfmis	f0, [sp], {4}
 500:	03000003 	movweq	r0, #3
 504:	008a1f01 	addeq	r1, sl, r1, lsl #30
 508:	01080000 	mrseq	r0, (UNDEF: 8)
 50c:	0001d70d 	andeq	sp, r1, sp, lsl #14
 510:	1f020300 	svcne	0x00020300
 514:	0000008a 	andeq	r0, r0, sl, lsl #1
 518:	750d010c 	strvc	r0, [sp, #-268]	; 0x10c
 51c:	03000000 	movweq	r0, #0
 520:	05d11f03 	ldrbeq	r1, [r1, #3843]	; 0xf03
 524:	01100000 	tsteq	r0, r0
 528:	0000c40d 	andeq	ip, r0, sp, lsl #8
 52c:	1f040300 	svcne	0x00040300
 530:	0000008a 	andeq	r0, r0, sl, lsl #1
 534:	a30d0150 	movwge	r0, #53584	; 0xd150
 538:	03000000 	movweq	r0, #0
 53c:	008a1f05 	addeq	r1, sl, r5, lsl #30
 540:	01540000 	cmpeq	r4, r0
 544:	0004130d 	andeq	r1, r4, sp, lsl #6
 548:	1f060300 	svcne	0x00060300
 54c:	0000008a 	andeq	r0, r0, sl, lsl #1
 550:	420d0158 	andmi	r0, sp, #88, 2
 554:	03000003 	movweq	r0, #3
 558:	008a1f07 	addeq	r1, sl, r7, lsl #30
 55c:	015c0000 	cmpeq	ip, r0
 560:	0000ca0d 	andeq	ip, r0, sp, lsl #20
 564:	1f080300 	svcne	0x00080300
 568:	0000008a 	andeq	r0, r0, sl, lsl #1
 56c:	690d0160 	stmdbvs	sp, {r5, r6, r8}
 570:	03000002 	movweq	r0, #2
 574:	008a1f09 	addeq	r1, sl, r9, lsl #30
 578:	01640000 	cmneq	r4, r0
 57c:	0000e40d 	andeq	lr, r0, sp, lsl #8
 580:	1f0a0300 	svcne	0x000a0300
 584:	0000008a 	andeq	r0, r0, sl, lsl #1
 588:	c80d0168 	stmdagt	sp, {r3, r5, r6, r8}
 58c:	03000004 	movweq	r0, #4
 590:	008a1f0b 	addeq	r1, sl, fp, lsl #30
 594:	016c0000 	cmneq	ip, r0
 598:	0001d10d 	andeq	sp, r1, sp, lsl #2
 59c:	1f0c0300 	svcne	0x000c0300
 5a0:	0000008a 	andeq	r0, r0, sl, lsl #1
 5a4:	030d0170 	movweq	r0, #53616	; 0xd170
 5a8:	03000004 	movweq	r0, #4
 5ac:	008a1f0d 	addeq	r1, sl, sp, lsl #30
 5b0:	01740000 	cmneq	r4, r0
 5b4:	0002b40d 	andeq	fp, r2, sp, lsl #8
 5b8:	1f0e0300 	svcne	0x000e0300
 5bc:	0000008a 	andeq	r0, r0, sl, lsl #1
 5c0:	7c0d0178 	stfvcs	f0, [sp], {120}	; 0x78
 5c4:	03000001 	movweq	r0, #1
 5c8:	008a1f0f 	addeq	r1, sl, pc, lsl #30
 5cc:	017c0000 	cmneq	ip, r0
 5d0:	003a0500 	eorseq	r0, sl, r0, lsl #10
 5d4:	05e10000 	strbeq	r0, [r1, #0]!
 5d8:	73060000 	movwvc	r0, #24576	; 0x6000
 5dc:	3f000000 	svccc	0x00000000
 5e0:	00b40b00 	adcseq	r0, r4, r0, lsl #22
 5e4:	10030000 	andne	r0, r3, r0
 5e8:	0002821f 	andeq	r8, r2, pc, lsl r2
 5ec:	08010200 	stmdaeq	r1, {r9}
 5f0:	000001ec 	andeq	r0, r0, ip, ror #3
 5f4:	00006a0e 	andeq	r6, r0, lr, lsl #20
 5f8:	3c090100 	stfccs	f0, [r9], {-0}
 5fc:	70878000 	addvc	r8, r7, r0
 600:	01000000 	mrseq	r0, (UNDEF: 0)
 604:	01340f9c 			; <UNDEFINED> instruction: 0x01340f9c
 608:	1a010000 	bne	40610 <_start-0x877bf9f0>
 60c:	878000ac 	strhi	r0, [r0, ip, lsr #1]
 610:	000001d2 	ldrdeq	r0, [r0], -r2
 614:	72109c01 	andsvc	r9, r0, #256	; 0x100
 618:	01006765 	tsteq	r0, r5, ror #14
 61c:	00005e1c 	andeq	r5, r0, ip, lsl lr
 620:	74910200 	ldrvc	r0, [r1], #512	; 0x200
 624:	02160000 	andseq	r0, r6, #0
 628:	00040000 	andeq	r0, r4, r0
 62c:	000000e3 	andeq	r0, r0, r3, ror #1
 630:	01ff0104 	mvnseq	r0, r4, lsl #2
 634:	0d010000 	stceq	0, cr0, [r1, #-0]
 638:	be000005 	cdplt	0, 0, cr0, cr0, cr5, {0}
 63c:	80000002 	andhi	r0, r0, r2
 640:	32878002 	addcc	r8, r7, #2
 644:	a3000001 	movwge	r0, #1
 648:	02000000 	andeq	r0, r0, #0
 64c:	01e50601 	mvneq	r0, r1, lsl #12
 650:	02020000 	andeq	r0, r2, #0
 654:	00006005 	andeq	r6, r0, r5
 658:	05040300 	streq	r0, [r4, #-768]	; 0x300
 65c:	00746e69 	rsbseq	r6, r4, r9, ror #28
 660:	e3080102 	movw	r0, #33026	; 0x8102
 664:	02000001 	andeq	r0, r0, #1
 668:	03150702 	tsteq	r5, #524288	; 0x80000
 66c:	9b040000 	blls	100674 <_start-0x876ff98c>
 670:	04000002 	streq	r0, [r0], #-2
 674:	0000531c 	andeq	r5, r0, ip, lsl r3
 678:	07040200 	streq	r0, [r4, -r0, lsl #4]
 67c:	00000289 	andeq	r0, r0, r9, lsl #5
 680:	7f070802 	svcvc	0x00070802
 684:	02000002 	andeq	r0, r0, #2
 688:	01500508 	cmpeq	r0, r8, lsl #10
 68c:	04020000 	streq	r0, [r2], #-0
 690:	00042b07 	andeq	r2, r4, r7, lsl #22
 694:	00480500 	subeq	r0, r8, r0, lsl #10
 698:	20060000 	andcs	r0, r6, r0
 69c:	e534e303 	ldr	lr, [r4, #-771]!	; 0x303
 6a0:	07000000 	streq	r0, [r0, -r0]
 6a4:	03005244 	movweq	r5, #580	; 0x244
 6a8:	006f34e4 	rsbeq	r3, pc, r4, ror #9
 6ac:	08000000 	stmdaeq	r0, {}	; <UNPREDICTABLE>
 6b0:	000004e7 	andeq	r0, r0, r7, ror #9
 6b4:	6f34e503 	svcvs	0x0034e503
 6b8:	04000000 	streq	r0, [r0], #-0
 6bc:	52535007 	subspl	r5, r3, #7
 6c0:	34e60300 	strbtcc	r0, [r6], #768	; 0x300
 6c4:	0000006f 	andeq	r0, r0, pc, rrx
 6c8:	05730808 	ldrbeq	r0, [r3, #-2056]!	; 0x808
 6cc:	e7030000 	str	r0, [r3, -r0]
 6d0:	00006f34 	andeq	r6, r0, r4, lsr pc
 6d4:	78080c00 	stmdavc	r8, {sl, fp}
 6d8:	03000005 	movweq	r0, #5
 6dc:	006f34e8 	rsbeq	r3, pc, r8, ror #9
 6e0:	07100000 	ldreq	r0, [r0, -r0]
 6e4:	00524d49 	subseq	r4, r2, r9, asr #26
 6e8:	6f34e903 	svcvs	0x0034e903
 6ec:	14000000 	strne	r0, [r0], #-0
 6f0:	52534907 	subspl	r4, r3, #114688	; 0x1c000
 6f4:	34ea0300 	strbtcc	r0, [sl], #768	; 0x300
 6f8:	0000006f 	andeq	r0, r0, pc, rrx
 6fc:	056a0818 	strbeq	r0, [sl, #-2072]!	; 0x818
 700:	eb030000 	bl	c0708 <_start-0x8773f8f8>
 704:	00006f34 	andeq	r6, r0, r4, lsr pc
 708:	09001c00 	stmdbeq	r0, {sl, fp, ip}
 70c:	0000053d 	andeq	r0, r0, sp, lsr r5
 710:	7434ec03 	ldrtvc	lr, [r4], #-3075	; 0xc03
 714:	02000000 	andeq	r0, r0, #0
 718:	01ec0801 	mvneq	r0, r1, lsl #16
 71c:	210a0000 	mrscs	r0, (UNDEF: 10)
 720:	01000005 	tsteq	r0, r5
 724:	02800436 	addeq	r0, r0, #905969664	; 0x36000000
 728:	003c8780 	eorseq	r8, ip, r0, lsl #15
 72c:	9c010000 	stcls	0, cr0, [r1], {-0}
 730:	00000169 	andeq	r0, r0, r9, ror #2
 734:	0004ec0b 	andeq	lr, r4, fp, lsl #24
 738:	04360100 	ldrteq	r0, [r6], #-256	; 0x100
 73c:	00000048 	andeq	r0, r0, r8, asr #32
 740:	0b749102 	bleq	1d24b50 <_start-0x85adb4b0>
 744:	000004f8 	strdeq	r0, [r0], -r8
 748:	48043701 	stmdami	r4, {r0, r8, r9, sl, ip, sp}
 74c:	02000000 	andeq	r0, r0, #0
 750:	d20b7091 	andle	r7, fp, #145	; 0x91
 754:	01000004 	tsteq	r0, r4
 758:	00480438 	subeq	r0, r8, r8, lsr r4
 75c:	91020000 	mrsls	r0, (UNDEF: 2)
 760:	05320b6c 	ldreq	r0, [r2, #-2924]!	; 0xb6c
 764:	39010000 	stmdbcc	r1, {}	; <UNPREDICTABLE>
 768:	00004804 	andeq	r4, r0, r4, lsl #16
 76c:	68910200 	ldmvs	r1, {r9}
 770:	00055b0b 	andeq	r5, r5, fp, lsl #22
 774:	043a0100 	ldrteq	r0, [sl], #-256	; 0x100
 778:	00000048 	andeq	r0, r0, r8, asr #32
 77c:	0b009102 	bleq	24b8c <_start-0x877db474>
 780:	00000500 	andeq	r0, r0, r0, lsl #10
 784:	48043b01 	stmdami	r4, {r0, r8, r9, fp, ip, sp}
 788:	02000000 	andeq	r0, r0, #0
 78c:	0a000491 	beq	19d8 <_start-0x877fe628>
 790:	00000547 	andeq	r0, r0, r7, asr #10
 794:	bc045601 	stclt	6, cr5, [r4], {1}
 798:	24878002 	strcs	r8, [r7], #2
 79c:	01000000 	mrseq	r0, (UNDEF: 0)
 7a0:	0001da9c 	muleq	r1, ip, sl
 7a4:	04ec0b00 	strbteq	r0, [ip], #2816	; 0xb00
 7a8:	56010000 	strpl	r0, [r1], -r0
 7ac:	00004804 	andeq	r4, r0, r4, lsl #16
 7b0:	74910200 	ldrvc	r0, [r1], #512	; 0x200
 7b4:	0004f80b 	andeq	pc, r4, fp, lsl #16
 7b8:	04570100 	ldrbeq	r0, [r7], #-256	; 0x100
 7bc:	00000048 	andeq	r0, r0, r8, asr #32
 7c0:	0b709102 	bleq	1c24bd0 <_start-0x85bdb430>
 7c4:	000004d2 	ldrdeq	r0, [r0], -r2
 7c8:	48045801 	stmdami	r4, {r0, fp, ip, lr}
 7cc:	02000000 	andeq	r0, r0, #0
 7d0:	320b6c91 	andcc	r6, fp, #37120	; 0x9100
 7d4:	01000005 	tsteq	r0, r5
 7d8:	00480459 	subeq	r0, r8, r9, asr r4
 7dc:	91020000 	mrsls	r0, (UNDEF: 2)
 7e0:	055b0b68 	ldrbeq	r0, [fp, #-2920]	; 0xb68
 7e4:	5a010000 	bpl	407ec <_start-0x877bf814>
 7e8:	00004804 	andeq	r4, r0, r4, lsl #16
 7ec:	00910200 	addseq	r0, r1, r0, lsl #4
 7f0:	0005860b 	andeq	r8, r5, fp, lsl #12
 7f4:	045b0100 	ldrbeq	r0, [fp], #-256	; 0x100
 7f8:	00000048 	andeq	r0, r0, r8, asr #32
 7fc:	00049102 	andeq	r9, r4, r2, lsl #2
 800:	00057d0c 	andeq	r7, r5, ip, lsl #26
 804:	e0080200 	and	r0, r8, r0, lsl #4
 808:	78878002 	stmvc	r7, {r1, pc}
 80c:	01000000 	mrseq	r0, (UNDEF: 0)
 810:	05920d9c 	ldreq	r0, [r2, #3484]	; 0xd9c
 814:	28020000 	stmdacs	r2, {}	; <UNPREDICTABLE>
 818:	87800358 			; <UNDEFINED> instruction: 0x87800358
 81c:	0000005a 	andeq	r0, r0, sl, asr r0
 820:	6c0e9c01 	stcvs	12, cr9, [lr], {1}
 824:	02006465 	andeq	r6, r0, #1694498816	; 0x65000000
 828:	00003328 	andeq	r3, r0, r8, lsr #6
 82c:	74910200 	ldrvc	r0, [r1], #512	; 0x200
 830:	0004e00f 	andeq	lr, r4, pc
 834:	33280200 	teqcc	r8, #0, 4
 838:	02000000 	andeq	r0, r0, #0
 83c:	00007091 	muleq	r0, r1, r0
 840:	000001ea 	andeq	r0, r0, sl, ror #3
 844:	01ce0004 	biceq	r0, lr, r4
 848:	01040000 	mrseq	r0, (UNDEF: 4)
 84c:	000001ff 	strdeq	r0, [r0], -pc	; <UNPREDICTABLE>
 850:	0005f501 	andeq	pc, r5, r1, lsl #10
 854:	0002be00 	andeq	fp, r2, r0, lsl #28
 858:	8003b400 	andhi	fp, r3, r0, lsl #8
 85c:	00015a87 	andeq	r5, r1, r7, lsl #21
 860:	00014300 	andeq	r4, r1, r0, lsl #6
 864:	06010200 	streq	r0, [r1], -r0, lsl #4
 868:	000001e5 	andeq	r0, r0, r5, ror #3
 86c:	60050202 	andvs	r0, r5, r2, lsl #4
 870:	03000000 	movweq	r0, #0
 874:	6e690504 	cdpvs	5, 6, cr0, cr9, cr4, {0}
 878:	01020074 	tsteq	r2, r4, ror r0
 87c:	0001e308 	andeq	lr, r1, r8, lsl #6
 880:	07020200 	streq	r0, [r2, -r0, lsl #4]
 884:	00000315 	andeq	r0, r0, r5, lsl r3
 888:	00029b04 	andeq	r9, r2, r4, lsl #22
 88c:	531c0300 	tstpl	ip, #0, 6
 890:	02000000 	andeq	r0, r0, #0
 894:	02890704 	addeq	r0, r9, #4, 14	; 0x100000
 898:	08020000 	stmdaeq	r2, {}	; <UNPREDICTABLE>
 89c:	00027f07 	andeq	r7, r2, r7, lsl #30
 8a0:	05080200 	streq	r0, [r8, #-512]	; 0x200
 8a4:	00000150 	andeq	r0, r0, r0, asr r1
 8a8:	2b070402 	blcs	1c18b8 <_start-0x8763e748>
 8ac:	05000004 	streq	r0, [r0, #-4]
 8b0:	00000048 	andeq	r0, r0, r8, asr #32
 8b4:	00004806 	andeq	r4, r0, r6, lsl #16
 8b8:	00008400 	andeq	r8, r0, r0, lsl #8
 8bc:	00680700 	rsbeq	r0, r8, r0, lsl #14
 8c0:	00020000 	andeq	r0, r2, r0
 8c4:	6f022808 	svcvs	0x00022808
 8c8:	0000e539 	andeq	lr, r0, r9, lsr r5
 8cc:	52430900 	subpl	r0, r3, #0, 18
 8d0:	39700200 	ldmdbcc	r0!, {r9}^
 8d4:	0000006f 	andeq	r0, r0, pc, rrx
 8d8:	52500900 	subspl	r0, r0, #0, 18
 8dc:	39710200 	ldmdbcc	r1!, {r9}^
 8e0:	0000006f 	andeq	r0, r0, pc, rrx
 8e4:	52530904 	subspl	r0, r3, #4, 18	; 0x10000
 8e8:	39720200 	ldmdbcc	r2!, {r9}^
 8ec:	0000006f 	andeq	r0, r0, pc, rrx
 8f0:	52490908 	subpl	r0, r9, #8, 18	; 0x20000
 8f4:	39730200 	ldmdbcc	r3!, {r9}^
 8f8:	0000006f 	andeq	r0, r0, pc, rrx
 8fc:	434f090c 	movtmi	r0, #63756	; 0xf90c
 900:	74020052 	strvc	r0, [r2], #-82	; 0x52
 904:	0000e539 	andeq	lr, r0, r9, lsr r5
 908:	49091000 	stmdbmi	r9, {ip}
 90c:	02005243 	andeq	r5, r0, #805306372	; 0x30000004
 910:	00fa3975 	rscseq	r3, sl, r5, ror r9
 914:	091c0000 	ldmdbeq	ip, {}	; <UNPREDICTABLE>
 918:	00544e43 	subseq	r4, r4, r3, asr #28
 91c:	6f397602 	svcvs	0x00397602
 920:	24000000 	strcs	r0, [r0], #-0
 924:	00740500 	rsbseq	r0, r4, r0, lsl #10
 928:	48060000 	stmdami	r6, {}	; <UNPREDICTABLE>
 92c:	fa000000 	blx	934 <_start-0x877ff6cc>
 930:	07000000 	streq	r0, [r0, -r0]
 934:	00000068 	andeq	r0, r0, r8, rrx
 938:	ea050001 	b	140944 <_start-0x876bf6bc>
 93c:	0a000000 	beq	944 <_start-0x877ff6bc>
 940:	000005ec 	andeq	r0, r0, ip, ror #11
 944:	84397702 	ldrthi	r7, [r9], #-1794	; 0x702
 948:	02000000 	andeq	r0, r0, #0
 94c:	01ec0801 	mvneq	r0, r1, lsl #16
 950:	53050000 	movwpl	r0, #20480	; 0x5000
 954:	0b000000 	bleq	95c <_start-0x877ff6a4>
 958:	000005ab 	andeq	r0, r0, fp, lsr #11
 95c:	03b40901 			; <UNDEFINED> instruction: 0x03b40901
 960:	007a8780 	rsbseq	r8, sl, r0, lsl #15
 964:	9c010000 	stcls	0, cr0, [r1], {-0}
 968:	0005d20c 	andeq	sp, r5, ip, lsl #4
 96c:	30670100 	rsbcc	r0, r7, r0, lsl #2
 970:	6a878004 	bvs	fe1e0988 <__bss_end+0x769e0444>
 974:	01000000 	mrseq	r0, (UNDEF: 0)
 978:	0001769c 	muleq	r1, ip, r6
 97c:	05be0d00 	ldreq	r0, [lr, #3328]!	; 0xd00
 980:	67010000 	strvs	r0, [r1, -r0]
 984:	00000053 	andeq	r0, r0, r3, asr r0
 988:	0e649102 	lgneqs	f1, f2
 98c:	000005a4 	andeq	r0, r0, r4, lsr #11
 990:	01766901 	cmneq	r6, r1, lsl #18
 994:	91020000 	mrsls	r0, (UNDEF: 2)
 998:	059d0e74 	ldreq	r0, [sp, #3700]	; 0xe74
 99c:	69010000 	stmdbvs	r1, {}	; <UNPREDICTABLE>
 9a0:	00000176 	andeq	r0, r0, r6, ror r1
 9a4:	0e6c9102 	lgneqe	f1, f2
 9a8:	000005e2 	andeq	r0, r0, r2, ror #11
 9ac:	01766a01 	cmneq	r6, r1, lsl #20
 9b0:	91020000 	mrsls	r0, (UNDEF: 2)
 9b4:	04020070 	streq	r0, [r2], #-112	; 0x70
 9b8:	00028407 	andeq	r8, r2, r7, lsl #8
 9bc:	05b60f00 	ldreq	r0, [r6, #3840]!	; 0xf00
 9c0:	82010000 	andhi	r0, r1, #0
 9c4:	8780049c 			; <UNDEFINED> instruction: 0x8780049c
 9c8:	0000002e 	andeq	r0, r0, lr, lsr #32
 9cc:	01ad9c01 			; <UNDEFINED> instruction: 0x01ad9c01
 9d0:	da0d0000 	ble	3409d8 <_start-0x874bf628>
 9d4:	01000005 	tsteq	r0, r5
 9d8:	00005382 	andeq	r5, r0, r2, lsl #7
 9dc:	6c910200 	lfmvs	f0, 4, [r1], {0}
 9e0:	01006910 	tsteq	r0, r0, lsl r9
 9e4:	00003384 	andeq	r3, r0, r4, lsl #7
 9e8:	74910200 	ldrvc	r0, [r1], #512	; 0x200
 9ec:	05c60c00 	strbeq	r0, [r6, #3072]	; 0xc00
 9f0:	90010000 	andls	r0, r1, r0
 9f4:	878004cc 	strhi	r0, [r0, ip, asr #9]
 9f8:	0000001e 	andeq	r0, r0, lr, lsl r0
 9fc:	01cf9c01 	biceq	r9, pc, r1, lsl #24
 a00:	6e110000 	cdpvs	0, 1, cr0, cr1, cr0, {0}
 a04:	12900100 	addsne	r0, r0, #0, 2
 a08:	02000001 	andeq	r0, r0, #1
 a0c:	12007491 	andne	r7, r0, #-1862270976	; 0x91000000
 a10:	000005dc 	ldrdeq	r0, [r0], -ip
 a14:	04ec9b01 	strbteq	r9, [ip], #2817	; 0xb01
 a18:	00228780 	eoreq	r8, r2, r0, lsl #15
 a1c:	9c010000 	stcls	0, cr0, [r1], {-0}
 a20:	01006e11 	tsteq	r0, r1, lsl lr
 a24:	0001129b 	muleq	r1, fp, r2
 a28:	74910200 	ldrvc	r0, [r1], #512	; 0x200
	...

Disassembly of section .debug_abbrev:

00000000 <.debug_abbrev>:
   0:	25011101 	strcs	r1, [r1, #-257]	; 0x101
   4:	030b130e 	movweq	r1, #45838	; 0xb30e
   8:	110e1b0e 	tstne	lr, lr, lsl #22
   c:	10061201 	andne	r1, r6, r1, lsl #4
  10:	02000017 	andeq	r0, r0, #23
  14:	0b0b0024 	bleq	2c00ac <_start-0x8753ff54>
  18:	0e030b3e 	vmoveq.16	d3[0], r0
  1c:	24030000 	strcs	r0, [r3], #-0
  20:	3e0b0b00 	vmlacc.f64	d0, d11, d0
  24:	0008030b 	andeq	r0, r8, fp, lsl #6
  28:	00160400 	andseq	r0, r6, r0, lsl #8
  2c:	0b3a0e03 	bleq	e83840 <_start-0x8697c7c0>
  30:	13490b3b 	movtne	r0, #39739	; 0x9b3b
  34:	01050000 	mrseq	r0, (UNDEF: 5)
  38:	01134901 	tsteq	r3, r1, lsl #18
  3c:	06000013 			; <UNDEFINED> instruction: 0x06000013
  40:	13490021 	movtne	r0, #36897	; 0x9021
  44:	00000b2f 	andeq	r0, r0, pc, lsr #22
  48:	49003507 	stmdbmi	r0, {r0, r1, r2, r8, sl, ip, sp}
  4c:	08000013 	stmdaeq	r0, {r0, r1, r4}
  50:	0b0b0113 	bleq	2c04a4 <_start-0x8753fb5c>
  54:	053b0b3a 	ldreq	r0, [fp, #-2874]!	; 0xb3a
  58:	00001301 	andeq	r1, r0, r1, lsl #6
  5c:	03000d09 	movweq	r0, #3337	; 0xd09
  60:	3b0b3a08 	blcc	2ce888 <_start-0x87531778>
  64:	38134905 	ldmdacc	r3, {r0, r2, r8, fp, lr}
  68:	0a00000b 	beq	9c <_start-0x877fff64>
  6c:	0e03000d 	cdpeq	0, 0, cr0, cr3, cr13, {0}
  70:	053b0b3a 	ldreq	r0, [fp, #-2874]!	; 0xb3a
  74:	0b381349 	bleq	e04da0 <_start-0x869fb260>
  78:	160b0000 	strne	r0, [fp], -r0
  7c:	3a0e0300 	bcc	380c84 <_start-0x8747f37c>
  80:	49053b0b 	stmdbmi	r5, {r0, r1, r3, r8, r9, fp, ip, sp}
  84:	0c000013 	stceq	0, cr0, [r0], {19}
  88:	050b0113 	streq	r0, [fp, #-275]	; 0x113
  8c:	053b0b3a 	ldreq	r0, [fp, #-2874]!	; 0xb3a
  90:	00001301 	andeq	r1, r0, r1, lsl #6
  94:	03000d0d 	movweq	r0, #3341	; 0xd0d
  98:	3b0b3a0e 	blcc	2ce8d8 <_start-0x87531728>
  9c:	38134905 	ldmdacc	r3, {r0, r2, r8, fp, lr}
  a0:	0e000005 	cdpeq	0, 0, cr0, cr0, cr5, {0}
  a4:	193f002e 	ldmdbne	pc!, {r1, r2, r3, r5}	; <UNPREDICTABLE>
  a8:	0b3a0e03 	bleq	e838bc <_start-0x8697c744>
  ac:	19270b3b 	stmdbne	r7!, {r0, r1, r3, r4, r5, r8, r9, fp}
  b0:	06120111 			; <UNDEFINED> instruction: 0x06120111
  b4:	42971840 	addsmi	r1, r7, #64, 16	; 0x400000
  b8:	0f000019 	svceq	0x00000019
  bc:	193f012e 	ldmdbne	pc!, {r1, r2, r3, r5, r8}	; <UNPREDICTABLE>
  c0:	0b3a0e03 	bleq	e838d4 <_start-0x8697c72c>
  c4:	19270b3b 	stmdbne	r7!, {r0, r1, r3, r4, r5, r8, r9, fp}
  c8:	06120111 			; <UNDEFINED> instruction: 0x06120111
  cc:	42971840 	addsmi	r1, r7, #64, 16	; 0x400000
  d0:	10000019 	andne	r0, r0, r9, lsl r0
  d4:	08030034 	stmdaeq	r3, {r2, r4, r5}
  d8:	0b3b0b3a 	bleq	ec2dc8 <_start-0x8693d238>
  dc:	18021349 	stmdane	r2, {r0, r3, r6, r8, r9, ip}
  e0:	01000000 	mrseq	r0, (UNDEF: 0)
  e4:	0e250111 	mcreq	1, 1, r0, cr5, cr1, {0}
  e8:	0e030b13 	vmoveq.32	d3[0], r0
  ec:	01110e1b 	tsteq	r1, fp, lsl lr
  f0:	17100612 			; <UNDEFINED> instruction: 0x17100612
  f4:	24020000 	strcs	r0, [r2], #-0
  f8:	3e0b0b00 	vmlacc.f64	d0, d11, d0
  fc:	000e030b 	andeq	r0, lr, fp, lsl #6
 100:	00240300 	eoreq	r0, r4, r0, lsl #6
 104:	0b3e0b0b 	bleq	f82d38 <_start-0x8687d2c8>
 108:	00000803 	andeq	r0, r0, r3, lsl #16
 10c:	03001604 	movweq	r1, #1540	; 0x604
 110:	3b0b3a0e 	blcc	2ce950 <_start-0x875316b0>
 114:	0013490b 	andseq	r4, r3, fp, lsl #18
 118:	00350500 	eorseq	r0, r5, r0, lsl #10
 11c:	00001349 	andeq	r1, r0, r9, asr #6
 120:	0b011306 	bleq	44d40 <_start-0x877bb2c0>
 124:	3b0b3a0b 	blcc	2ce958 <_start-0x875316a8>
 128:	00130105 	andseq	r0, r3, r5, lsl #2
 12c:	000d0700 	andeq	r0, sp, r0, lsl #14
 130:	0b3a0803 	bleq	e82144 <_start-0x8697debc>
 134:	1349053b 	movtne	r0, #38203	; 0x953b
 138:	00000b38 	andeq	r0, r0, r8, lsr fp
 13c:	03000d08 	movweq	r0, #3336	; 0xd08
 140:	3b0b3a0e 	blcc	2ce980 <_start-0x87531680>
 144:	38134905 	ldmdacc	r3, {r0, r2, r8, fp, lr}
 148:	0900000b 	stmdbeq	r0, {r0, r1, r3}
 14c:	0e030016 	mcreq	0, 0, r0, cr3, cr6, {0}
 150:	053b0b3a 	ldreq	r0, [fp, #-2874]!	; 0xb3a
 154:	00001349 	andeq	r1, r0, r9, asr #6
 158:	03012e0a 	movweq	r2, #7690	; 0x1e0a
 15c:	3b0b3a0e 	blcc	2ce99c <_start-0x87531664>
 160:	11192705 	tstne	r9, r5, lsl #14
 164:	40061201 	andmi	r1, r6, r1, lsl #4
 168:	19429718 	stmdbne	r2, {r3, r4, r8, r9, sl, ip, pc}^
 16c:	00001301 	andeq	r1, r0, r1, lsl #6
 170:	0300050b 	movweq	r0, #1291	; 0x50b
 174:	3b0b3a0e 	blcc	2ce9b4 <_start-0x8753164c>
 178:	02134905 	andseq	r4, r3, #81920	; 0x14000
 17c:	0c000018 	stceq	0, cr0, [r0], {24}
 180:	193f002e 	ldmdbne	pc!, {r1, r2, r3, r5}	; <UNPREDICTABLE>
 184:	0b3a0e03 	bleq	e83998 <_start-0x8697c668>
 188:	19270b3b 	stmdbne	r7!, {r0, r1, r3, r4, r5, r8, r9, fp}
 18c:	06120111 			; <UNDEFINED> instruction: 0x06120111
 190:	42961840 	addsmi	r1, r6, #64, 16	; 0x400000
 194:	0d000019 	stceq	0, cr0, [r0, #-100]	; 0xffffff9c
 198:	193f012e 	ldmdbne	pc!, {r1, r2, r3, r5, r8}	; <UNPREDICTABLE>
 19c:	0b3a0e03 	bleq	e839b0 <_start-0x8697c650>
 1a0:	19270b3b 	stmdbne	r7!, {r0, r1, r3, r4, r5, r8, r9, fp}
 1a4:	06120111 			; <UNDEFINED> instruction: 0x06120111
 1a8:	42971840 	addsmi	r1, r7, #64, 16	; 0x400000
 1ac:	0e000019 	mcreq	0, 0, r0, cr0, cr9, {0}
 1b0:	08030005 	stmdaeq	r3, {r0, r2}
 1b4:	0b3b0b3a 	bleq	ec2ea4 <_start-0x8693d15c>
 1b8:	18021349 	stmdane	r2, {r0, r3, r6, r8, r9, ip}
 1bc:	050f0000 	streq	r0, [pc, #-0]	; 1c4 <_start-0x877ffe3c>
 1c0:	3a0e0300 	bcc	380dc8 <_start-0x8747f238>
 1c4:	490b3b0b 	stmdbmi	fp, {r0, r1, r3, r8, r9, fp, ip, sp}
 1c8:	00180213 	andseq	r0, r8, r3, lsl r2
 1cc:	11010000 	mrsne	r0, (UNDEF: 1)
 1d0:	130e2501 	movwne	r2, #58625	; 0xe501
 1d4:	1b0e030b 	blne	380e08 <_start-0x8747f1f8>
 1d8:	1201110e 	andne	r1, r1, #-2147483645	; 0x80000003
 1dc:	00171006 	andseq	r1, r7, r6
 1e0:	00240200 	eoreq	r0, r4, r0, lsl #4
 1e4:	0b3e0b0b 	bleq	f82e18 <_start-0x8687d1e8>
 1e8:	00000e03 	andeq	r0, r0, r3, lsl #28
 1ec:	0b002403 	bleq	9200 <_start-0x877f6e00>
 1f0:	030b3e0b 	movweq	r3, #48651	; 0xbe0b
 1f4:	04000008 	streq	r0, [r0], #-8
 1f8:	0e030016 	mcreq	0, 0, r0, cr3, cr6, {0}
 1fc:	0b3b0b3a 	bleq	ec2eec <_start-0x8693d114>
 200:	00001349 	andeq	r1, r0, r9, asr #6
 204:	49003505 	stmdbmi	r0, {r0, r2, r8, sl, ip, sp}
 208:	06000013 			; <UNDEFINED> instruction: 0x06000013
 20c:	13490101 	movtne	r0, #37121	; 0x9101
 210:	00001301 	andeq	r1, r0, r1, lsl #6
 214:	49002107 	stmdbmi	r0, {r0, r1, r2, r8, sp}
 218:	000b2f13 	andeq	r2, fp, r3, lsl pc
 21c:	01130800 	tsteq	r3, r0, lsl #16
 220:	0b3a0b0b 	bleq	e82e54 <_start-0x8697d1ac>
 224:	1301053b 	movwne	r0, #5435	; 0x153b
 228:	0d090000 	stceq	0, cr0, [r9, #-0]
 22c:	3a080300 	bcc	200e34 <_start-0x875ff1cc>
 230:	49053b0b 	stmdbmi	r5, {r0, r1, r3, r8, r9, fp, ip, sp}
 234:	000b3813 	andeq	r3, fp, r3, lsl r8
 238:	00160a00 	andseq	r0, r6, r0, lsl #20
 23c:	0b3a0e03 	bleq	e83a50 <_start-0x8697c5b0>
 240:	1349053b 	movtne	r0, #38203	; 0x953b
 244:	2e0b0000 	cdpcs	0, 0, cr0, cr11, cr0, {0}
 248:	03193f00 	tsteq	r9, #0, 30
 24c:	3b0b3a0e 	blcc	2cea8c <_start-0x87531574>
 250:	1119270b 	tstne	r9, fp, lsl #14
 254:	40061201 	andmi	r1, r6, r1, lsl #4
 258:	19429718 	stmdbne	r2, {r3, r4, r8, r9, sl, ip, pc}^
 25c:	2e0c0000 	cdpcs	0, 0, cr0, cr12, cr0, {0}
 260:	03193f01 	tsteq	r9, #1, 30
 264:	3b0b3a0e 	blcc	2ceaa4 <_start-0x8753155c>
 268:	1119270b 	tstne	r9, fp, lsl #14
 26c:	40061201 	andmi	r1, r6, r1, lsl #4
 270:	19429718 	stmdbne	r2, {r3, r4, r8, r9, sl, ip, pc}^
 274:	00001301 	andeq	r1, r0, r1, lsl #6
 278:	0300050d 	movweq	r0, #1293	; 0x50d
 27c:	3b0b3a0e 	blcc	2ceabc <_start-0x87531544>
 280:	0213490b 	andseq	r4, r3, #180224	; 0x2c000
 284:	0e000018 	mcreq	0, 0, r0, cr0, cr8, {0}
 288:	0e030034 	mcreq	0, 0, r0, cr3, cr4, {1}
 28c:	0b3b0b3a 	bleq	ec2f7c <_start-0x8693d084>
 290:	18021349 	stmdane	r2, {r0, r3, r6, r8, r9, ip}
 294:	2e0f0000 	cdpcs	0, 0, cr0, cr15, cr0, {0}
 298:	03193f01 	tsteq	r9, #1, 30
 29c:	3b0b3a0e 	blcc	2ceadc <_start-0x87531524>
 2a0:	1119270b 	tstne	r9, fp, lsl #14
 2a4:	40061201 	andmi	r1, r6, r1, lsl #4
 2a8:	19429618 	stmdbne	r2, {r3, r4, r9, sl, ip, pc}^
 2ac:	00001301 	andeq	r1, r0, r1, lsl #6
 2b0:	03003410 	movweq	r3, #1040	; 0x410
 2b4:	3b0b3a08 	blcc	2ceadc <_start-0x87531524>
 2b8:	0213490b 	andseq	r4, r3, #180224	; 0x2c000
 2bc:	11000018 	tstne	r0, r8, lsl r0
 2c0:	08030005 	stmdaeq	r3, {r0, r2}
 2c4:	0b3b0b3a 	bleq	ec2fb4 <_start-0x8693d04c>
 2c8:	18021349 	stmdane	r2, {r0, r3, r6, r8, r9, ip}
 2cc:	2e120000 	cdpcs	0, 1, cr0, cr2, cr0, {0}
 2d0:	03193f01 	tsteq	r9, #1, 30
 2d4:	3b0b3a0e 	blcc	2ceb14 <_start-0x875314ec>
 2d8:	1119270b 	tstne	r9, fp, lsl #14
 2dc:	40061201 	andmi	r1, r6, r1, lsl #4
 2e0:	19429618 	stmdbne	r2, {r3, r4, r9, sl, ip, pc}^
 2e4:	Address 0x00000000000002e4 is out of bounds.


Disassembly of section .debug_aranges:

00000000 <.debug_aranges>:
   0:	0000001c 	andeq	r0, r0, ip, lsl r0
   4:	00000002 	andeq	r0, r0, r2
   8:	00040000 	andeq	r0, r4, r0
   c:	00000000 	andeq	r0, r0, r0
  10:	8780003c 			; <UNDEFINED> instruction: 0x8780003c
  14:	00000242 	andeq	r0, r0, r2, asr #4
	...
  20:	0000001c 	andeq	r0, r0, ip, lsl r0
  24:	06260002 	strteq	r0, [r6], -r2
  28:	00040000 	andeq	r0, r4, r0
  2c:	00000000 	andeq	r0, r0, r0
  30:	87800280 	strhi	r0, [r0, r0, lsl #5]
  34:	00000132 	andeq	r0, r0, r2, lsr r1
	...
  40:	0000001c 	andeq	r0, r0, ip, lsl r0
  44:	08400002 	stmdaeq	r0, {r1}^
  48:	00040000 	andeq	r0, r4, r0
  4c:	00000000 	andeq	r0, r0, r0
  50:	878003b4 			; <UNDEFINED> instruction: 0x878003b4
  54:	0000015a 	andeq	r0, r0, sl, asr r1
	...

Disassembly of section .debug_line:

00000000 <.debug_line>:
   0:	0000009f 	muleq	r0, pc, r0	; <UNPREDICTABLE>
   4:	00530002 	subseq	r0, r3, r2
   8:	01020000 	mrseq	r0, (UNDEF: 2)
   c:	000d0efb 	strdeq	r0, [sp], -fp
  10:	01010101 	tsteq	r1, r1, lsl #2
  14:	01000000 	mrseq	r0, (UNDEF: 0)
  18:	2e010000 	cdpcs	0, 0, cr0, cr1, cr0, {0}
  1c:	7073622f 	rsbsvc	r6, r3, pc, lsr #4
  20:	6b6c632f 	blvs	1b18ce4 <_start-0x85ce731c>
  24:	622f2e00 	eorvs	r2, pc, #0, 28
  28:	6e2f7073 	mcrvs	0, 1, r7, cr15, cr3, {3}
  2c:	6d2d7078 	stcvs	0, cr7, [sp, #-480]!	; 0xfffffe20
  30:	61726769 	cmnvs	r2, r9, ror #14
  34:	00646574 	rsbeq	r6, r4, r4, ror r5
  38:	70736200 	rsbsvc	r6, r3, r0, lsl #4
  3c:	6b6c635f 	blvs	1b18dc0 <_start-0x85ce7240>
  40:	0100632e 	tsteq	r0, lr, lsr #6
  44:	63630000 	cmnvs	r3, #0
  48:	0200682e 	andeq	r6, r0, #3014656	; 0x2e0000
  4c:	434d0000 	movtmi	r0, #53248	; 0xd000
  50:	36584d49 	ldrbcc	r4, [r8], -r9, asr #26
  54:	682e3259 	stmdavs	lr!, {r0, r3, r4, r6, r9, ip, sp}
  58:	00000200 	andeq	r0, r0, r0, lsl #4
  5c:	02050000 	andeq	r0, r5, #0
  60:	8780003c 			; <UNDEFINED> instruction: 0x8780003c
  64:	2f010903 	svccs	0x00010903
  68:	75757575 	ldrbvc	r7, [r5, #-1397]!	; 0x575
  6c:	03837575 	orreq	r7, r3, #490733568	; 0x1d400000
  70:	033d4a09 	teqeq	sp, #36864	; 0x9000
  74:	bba02e0a 	bllt	fe80b8a4 <__bss_end+0x7700b360>
  78:	75ba0a03 	ldrvc	r0, [sl, #2563]!	; 0xa03
  7c:	4b7569bb 	blmi	1d5a770 <_start-0x85aa5890>
  80:	4b4b4b4b 	blmi	12d2db4 <_start-0x8652d24c>
  84:	4b752f77 	blmi	1d4be68 <_start-0x85ab4198>
  88:	4b4b4b4b 	blmi	12d2dbc <_start-0x8652d244>
  8c:	bbbbbb77 	bllt	feeeee70 <__bss_end+0x776ee92c>
  90:	01040200 	mrseq	r0, R12_usr
  94:	03062006 	movweq	r2, #24582	; 0x6006
  98:	bdbb9011 	ldclt	0, cr9, [fp, #68]!	; 0x44
  9c:	0502bbbb 	streq	fp, [r2, #-3003]	; 0xbbb
  a0:	9c010100 	stflss	f0, [r1], {-0}
  a4:	02000000 	andeq	r0, r0, #0
  a8:	00006300 	andeq	r6, r0, r0, lsl #6
  ac:	fb010200 	blx	408b6 <_start-0x877bf74a>
  b0:	01000d0e 	tsteq	r0, lr, lsl #26
  b4:	00010101 	andeq	r0, r1, r1, lsl #2
  b8:	00010000 	andeq	r0, r1, r0
  bc:	2f2e0100 	svccs	0x002e0100
  c0:	2f707362 	svccs	0x00707362
  c4:	2d70786e 	ldclcs	8, cr7, [r0, #-440]!	; 0xfffffe48
  c8:	7267696d 	rsbvc	r6, r7, #1785856	; 0x1b4000
  cc:	64657461 	strbtvs	r7, [r5], #-1121	; 0x461
  d0:	622f2e00 	eorvs	r2, pc, #0, 28
  d4:	6c2f7073 	stcvs	0, cr7, [pc], #-460	; ffffff10 <__bss_end+0x787ff9cc>
  d8:	00006465 	andeq	r6, r0, r5, ror #8
  dc:	5f6c7366 	svcpl	0x006c7366
  e0:	756d6f69 	strbvc	r6, [sp, #-3945]!	; 0xf69
  e4:	682e6378 	stmdavs	lr!, {r3, r4, r5, r6, r8, r9, sp, lr}
  e8:	00000100 	andeq	r0, r0, r0, lsl #2
  ec:	5f707362 	svcpl	0x00707362
  f0:	2e64656c 	cdpcs	5, 6, cr6, cr4, cr12, {3}
  f4:	00020063 	andeq	r0, r2, r3, rrx
  f8:	49434d00 	stmdbmi	r3, {r8, sl, fp, lr}^
  fc:	5936584d 	ldmdbpl	r6!, {r0, r2, r3, r6, fp, ip, lr}
 100:	00682e32 	rsbeq	r2, r8, r2, lsr lr
 104:	63000001 	movwvs	r0, #1
 108:	00682e63 	rsbeq	r2, r8, r3, ror #28
 10c:	00000001 	andeq	r0, r0, r1
 110:	80020500 	andhi	r0, r2, r0, lsl #10
 114:	03878002 	orreq	r8, r7, #2
 118:	750108bb 	strvc	r0, [r1, #-2235]	; 0x8bb
 11c:	3e238121 	absccsp	f0, f1
 120:	5818035a 	ldmdapl	r8, {r1, r3, r4, r6, r8, r9}
 124:	043e3e75 	ldrteq	r3, [lr], #-3701	; 0xe75
 128:	77a80302 	strvc	r0, [r8, r2, lsl #6]!
 12c:	0d033e58 	stceq	14, cr3, [r3, #-352]	; 0xfffffea0
 130:	bbbdf5e4 	bllt	fef7d8c8 <__bss_end+0x7777d384>
 134:	592e0a03 	stmdbpl	lr!, {r0, r1, r9, fp}
 138:	3dc93d3f 	stclcc	13, cr3, [r9, #252]	; 0xfc
 13c:	050222bb 	streq	r2, [r2, #-699]	; 0x2bb
 140:	b6010100 	strlt	r0, [r1], -r0, lsl #2
 144:	02000000 	andeq	r0, r0, #0
 148:	00005700 	andeq	r5, r0, r0, lsl #14
 14c:	fb010200 	blx	40956 <_start-0x877bf6aa>
 150:	01000d0e 	tsteq	r0, lr, lsl #26
 154:	00010101 	andeq	r0, r1, r1, lsl #2
 158:	00010000 	andeq	r0, r1, r0
 15c:	2f2e0100 	svccs	0x002e0100
 160:	2f707362 	svccs	0x00707362
 164:	616c6564 	cmnvs	ip, r4, ror #10
 168:	2f2e0079 	svccs	0x002e0079
 16c:	2f707362 	svccs	0x00707362
 170:	2d70786e 	ldclcs	8, cr7, [r0, #-440]!	; 0xfffffe48
 174:	7267696d 	rsbvc	r6, r7, #1785856	; 0x1b4000
 178:	64657461 	strbtvs	r7, [r5], #-1121	; 0x461
 17c:	73620000 	cmnvc	r2, #0
 180:	65645f70 	strbvs	r5, [r4, #-3952]!	; 0xf70
 184:	2e79616c 	rpwcsez	f6, f1, #4.0
 188:	00010063 	andeq	r0, r1, r3, rrx
 18c:	49434d00 	stmdbmi	r3, {r8, sl, fp, lr}^
 190:	5936584d 	ldmdbpl	r6!, {r0, r2, r3, r6, fp, ip, lr}
 194:	00682e32 	rsbeq	r2, r8, r2, lsr lr
 198:	63000002 	movwvs	r0, #2
 19c:	00682e63 	rsbeq	r2, r8, r3, ror #28
 1a0:	00000002 	andeq	r0, r0, r2
 1a4:	b4020500 	strlt	r0, [r2], #-1280	; 0x500
 1a8:	03878003 	orreq	r8, r7, #3
 1ac:	682f0109 	stmdavs	pc!, {r0, r3, r8}	; <UNPREDICTABLE>
 1b0:	04020075 	streq	r0, [r2], #-117	; 0x75
 1b4:	06200601 	strteq	r0, [r0], -r1, lsl #12
 1b8:	6d9e0903 	ldcvs	9, cr0, [lr, #12]
 1bc:	76660903 	strbtvc	r0, [r6], -r3, lsl #18
 1c0:	03ba2203 			; <UNDEFINED> instruction: 0x03ba2203
 1c4:	304c581d 	subcc	r5, ip, sp, lsl r8
 1c8:	4b4c6769 	blmi	1319f74 <_start-0x864e608c>
 1cc:	4b2f7576 	blmi	bdd7ac <_start-0x86c22854>
 1d0:	4b6e2122 	blmi	1b88660 <_start-0x85c779a0>
 1d4:	0402002f 	streq	r0, [r2], #-47	; 0x2f
 1d8:	02003e03 	andeq	r3, r0, #3, 28	; 0x30
 1dc:	00480304 	subeq	r0, r8, r4, lsl #6
 1e0:	06010402 	streq	r0, [r1], -r2, lsl #8
 1e4:	524e063c 	subpl	r0, lr, #60, 12	; 0x3c00000
 1e8:	0402004b 	streq	r0, [r2], #-75	; 0x4b
 1ec:	06200601 	strteq	r0, [r0], -r1, lsl #12
 1f0:	66090359 			; <UNDEFINED> instruction: 0x66090359
 1f4:	5c48224b 	sfmpl	f2, 2, [r8], {75}	; 0x4b
 1f8:	01000302 	tsteq	r0, r2, lsl #6
 1fc:	Address 0x00000000000001fc is out of bounds.


Disassembly of section .debug_str:

00000000 <.debug_str>:
   0:	5f4c4c50 	svcpl	0x004c4c50
   4:	5f4d5241 	svcpl	0x004d5241
   8:	00524c43 	subseq	r4, r2, r3, asr #24
   c:	4d435343 	stclmi	3, cr5, [r3, #-268]	; 0xfffffef4
  10:	50003252 	andpl	r3, r0, r2, asr r2
  14:	535f4c4c 	cmppl	pc, #76, 24	; 0x4c00
  18:	435f5359 	cmpmi	pc, #1677721601	; 0x64000001
  1c:	4300524c 	movwmi	r5, #588	; 0x24c
  20:	50494844 	subpl	r4, r9, r4, asr #16
  24:	4c500052 	mrrcmi	0, 5, r0, r0, cr2	; <UNPREDICTABLE>
  28:	55415f4c 	strbpl	r5, [r1, #-3916]	; 0xf4c
  2c:	5f4f4944 	svcpl	0x004f4944
  30:	00524c43 	subseq	r4, r2, r3, asr #24
  34:	44435343 	strbmi	r5, [r3], #-835	; 0x343
  38:	50003152 	andpl	r3, r0, r2, asr r1
  3c:	345f4446 	ldrbcc	r4, [pc], #-1094	; 44 <_start-0x877fffbc>
  40:	545f3038 	ldrbpl	r3, [pc], #-56	; 48 <_start-0x877fffb8>
  44:	4300474f 	movwmi	r4, #1871	; 0x74f
  48:	52444353 	subpl	r4, r4, #1275068417	; 0x4c000001
  4c:	49430033 	stmdbmi	r3, {r0, r1, r4, r5}^
  50:	50005253 	andpl	r5, r0, r3, asr r2
  54:	555f4c4c 	ldrbpl	r4, [pc, #-3148]	; fffff410 <__bss_end+0x787feecc>
  58:	5f314253 	svcpl	0x00314253
  5c:	00524c43 	subseq	r4, r2, r3, asr #24
  60:	726f6873 	rsbvc	r6, pc, #7536640	; 0x730000
  64:	6e692074 	mcrvs	0, 3, r2, cr9, cr4, {3}
  68:	6c630074 	stclvs	0, cr0, [r3], #-464	; 0xfffffe30
  6c:	6e655f6b 	cdpvs	15, 6, cr5, cr5, cr11, {3}
  70:	656c6261 	strbvs	r6, [ip, #-609]!	; 0x261
  74:	53455200 	movtpl	r5, #20992	; 0x5200
  78:	45565245 	ldrbmi	r5, [r6, #-581]	; 0x245
  7c:	00375f44 	eorseq	r5, r7, r4, asr #30
  80:	5f4c4c50 	svcpl	0x004c4c50
  84:	54454e45 	strbpl	r4, [r5], #-3653	; 0xe45
  88:	524c435f 	subpl	r4, ip, #2080374785	; 0x7c000001
  8c:	4c4c5000 	marmi	acc0, r5, ip
  90:	5359535f 	cmppl	r9, #2080374785	; 0x7c000001
  94:	474f545f 	smlsldmi	r5, pc, pc, r4	; <UNPREDICTABLE>
  98:	4c4c5000 	marmi	acc0, r5, ip
  9c:	4449565f 	strbmi	r5, [r9], #-1631	; 0x65f
  a0:	4d004f45 	stcmi	15, cr4, [r0, #-276]	; 0xfffffeec
  a4:	30435349 	subcc	r5, r3, r9, asr #6
  a8:	5445535f 	strbpl	r5, [r5], #-863	; 0x35f
  ac:	32534300 	subscc	r4, r3, #0, 6
  b0:	00524443 	subseq	r4, r2, r3, asr #8
  b4:	5f4d4343 	svcpl	0x004d4343
  b8:	4c414e41 	mcrrmi	14, 4, r4, r1, cr1
  bc:	545f474f 	ldrbpl	r4, [pc], #-1871	; c4 <_start-0x877fff3c>
  c0:	00657079 	rsbeq	r7, r5, r9, ror r0
  c4:	4353494d 	cmpmi	r3, #1261568	; 0x134000
  c8:	494d0030 	stmdbmi	sp, {r4, r5}^
  cc:	00314353 	eorseq	r4, r1, r3, asr r3
  d0:	43504c43 	cmpmi	r0, #17152	; 0x4300
  d4:	4c500052 	mrrcmi	0, 5, r0, r0, cr2	; <UNPREDICTABLE>
  d8:	49565f4c 	ldmdbmi	r6, {r2, r3, r6, r8, r9, sl, fp, ip, lr}^
  dc:	5f4f4544 	svcpl	0x004f4544
  e0:	00524c43 	subseq	r4, r2, r3, asr #24
  e4:	4353494d 	cmpmi	r3, #1261568	; 0x134000
  e8:	4c435f31 	mcrrmi	15, 3, r5, r3, cr1
  ec:	4c500052 	mrrcmi	0, 5, r0, r0, cr2	; <UNPREDICTABLE>
  f0:	53555f4c 	cmppl	r5, #76, 30	; 0x130
  f4:	545f3242 	ldrbpl	r3, [pc], #-578	; fc <_start-0x877fff04>
  f8:	2e00474f 	cdpcs	7, 0, cr4, cr0, cr15, {2}
  fc:	7073622f 	rsbsvc	r6, r3, pc, lsr #4
 100:	6b6c632f 	blvs	1b18dc4 <_start-0x85ce723c>
 104:	7073622f 	rsbsvc	r6, r3, pc, lsr #4
 108:	6b6c635f 	blvs	1b18e8c <_start-0x85ce7174>
 10c:	7500632e 	strvc	r6, [r0, #-814]	; 0x32e
 110:	38746e69 	ldmdacc	r4!, {r0, r3, r5, r6, r9, sl, fp, sp, lr}^
 114:	4300745f 	movwmi	r7, #1119	; 0x45f
 118:	52534f43 	subspl	r4, r3, #268	; 0x10c
 11c:	44465000 	strbmi	r5, [r6], #-0
 120:	3038345f 	eorscc	r3, r8, pc, asr r4
 124:	524c435f 	subpl	r4, ip, #2080374785	; 0x7c000001
 128:	4c4c5000 	marmi	acc0, r5, ip
 12c:	5359535f 	cmppl	r9, #2080374785	; 0x7c000001
 130:	0053535f 	subseq	r5, r3, pc, asr r3
 134:	36786d69 	ldrbtcc	r6, [r8], -r9, ror #26
 138:	6c635f75 	stclvs	15, cr5, [r3], #-468	; 0xfffffe2c
 13c:	696e696b 	stmdbvs	lr!, {r0, r1, r3, r5, r6, r8, fp, sp, lr}^
 140:	4c500074 	mrrcmi	0, 7, r0, r0, cr4	; <UNPREDICTABLE>
 144:	49565f4c 	ldmdbmi	r6, {r2, r3, r6, r8, r9, sl, fp, ip, lr}^
 148:	5f4f4544 	svcpl	0x004f4544
 14c:	004d554e 	subeq	r5, sp, lr, asr #10
 150:	676e6f6c 	strbvs	r6, [lr, -ip, ror #30]!
 154:	6e6f6c20 	cdpvs	12, 6, cr6, cr15, cr0, {1}
 158:	6e692067 	cdpvs	0, 6, cr2, cr9, cr7, {3}
 15c:	4c500074 	mrrcmi	0, 7, r0, r0, cr4	; <UNPREDICTABLE>
 160:	55415f4c 	strbpl	r5, [r1, #-3916]	; 0xf4c
 164:	5f4f4944 	svcpl	0x004f4944
 168:	00544553 	subseq	r4, r4, r3, asr r5
 16c:	5f444650 	svcpl	0x00444650
 170:	00383235 	eorseq	r3, r8, r5, lsr r2
 174:	5f4c4c50 	svcpl	0x004c4c50
 178:	004d5241 	subeq	r5, sp, r1, asr #4
 17c:	4353494d 	cmpmi	r3, #1261568	; 0x134000
 180:	4f545f32 	svcmi	0x00545f32
 184:	4c500047 	mrrcmi	0, 4, r0, r0, cr7	; <UNPREDICTABLE>
 188:	59535f4c 	ldmdbpl	r3, {r2, r3, r6, r8, r9, sl, fp, ip, lr}^
 18c:	46500053 			; <UNDEFINED> instruction: 0x46500053
 190:	38345f44 	ldmdacc	r4!, {r2, r6, r8, r9, sl, fp, ip, lr}
 194:	42430030 	submi	r0, r3, #48	; 0x30
 198:	00524443 	subseq	r4, r2, r3, asr #8
 19c:	5f4c4c50 	svcpl	0x004c4c50
 1a0:	31425355 	cmpcc	r2, r5, asr r3
 1a4:	5445535f 	strbpl	r5, [r5], #-863	; 0x35f
 1a8:	4d434300 	stclmi	3, cr4, [r3, #-0]
 1ac:	7079545f 	rsbsvc	r5, r9, pc, asr r4
 1b0:	4c500065 	mrrcmi	0, 6, r0, r0, cr5	; <UNPREDICTABLE>
 1b4:	53555f4c 	cmppl	r5, #76, 30	; 0x130
 1b8:	435f3242 	cmpmi	pc, #536870916	; 0x20000004
 1bc:	5000524c 	andpl	r5, r0, ip, asr #4
 1c0:	555f4c4c 	ldrbpl	r4, [pc, #-3148]	; fffff57c <__bss_end+0x787ff038>
 1c4:	00314253 	eorseq	r4, r1, r3, asr r2
 1c8:	5f4c4c50 	svcpl	0x004c4c50
 1cc:	32425355 	subcc	r5, r2, #1409286145	; 0x54000001
 1d0:	53494d00 	movtpl	r4, #40192	; 0x9d00
 1d4:	50003243 	andpl	r3, r0, r3, asr #4
 1d8:	355f4446 	ldrbcc	r4, [pc, #-1094]	; fffffd9a <__bss_end+0x787ff856>
 1dc:	545f3832 	ldrbpl	r3, [pc], #-2098	; 1e4 <_start-0x877ffe1c>
 1e0:	7500474f 	strvc	r4, [r0, #-1871]	; 0x74f
 1e4:	6769736e 	strbvs	r7, [r9, -lr, ror #6]!
 1e8:	2064656e 	rsbcs	r6, r4, lr, ror #10
 1ec:	72616863 	rsbvc	r6, r1, #6488064	; 0x630000
 1f0:	4c4c5000 	marmi	acc0, r5, ip
 1f4:	4449565f 	strbmi	r5, [r9], #-1631	; 0x65f
 1f8:	535f4f45 	cmppl	pc, #276	; 0x114
 1fc:	47005445 	strmi	r5, [r0, -r5, asr #8]
 200:	4320554e 	teqmi	r0, #327155712	; 0x13800000
 204:	392e3420 	stmdbcc	lr!, {r5, sl, ip, sp}
 208:	2d20342e 	cfstrscs	mvf3, [r0, #-184]!	; 0xffffff48
 20c:	6372616d 	cmnvs	r2, #1073741851	; 0x4000001b
 210:	72613d68 	rsbvc	r3, r1, #104, 26	; 0x1a00
 214:	2d37766d 	ldccs	6, cr7, [r7, #-436]!	; 0xfffffe4c
 218:	6d2d2061 	stcvs	0, cr2, [sp, #-388]!	; 0xfffffe7c
 21c:	656e7574 	strbvs	r7, [lr, #-1396]!	; 0x574
 220:	726f633d 	rsbvc	r6, pc, #-201326592	; 0xf4000000
 224:	2d786574 	cfldr64cs	mvdx6, [r8, #-464]!	; 0xfffffe30
 228:	2d203961 	stccs	9, cr3, [r0, #-388]!	; 0xfffffe7c
 22c:	6f6c666d 	svcvs	0x006c666d
 230:	612d7461 	teqvs	sp, r1, ror #8
 234:	683d6962 	ldmdavs	sp!, {r1, r5, r6, r8, fp, sp, lr}
 238:	20647261 	rsbcs	r7, r4, r1, ror #4
 23c:	70666d2d 	rsbvc	r6, r6, sp, lsr #26
 240:	66763d75 			; <UNDEFINED> instruction: 0x66763d75
 244:	2d337670 	ldccs	6, cr7, [r3, #-448]!	; 0xfffffe40
 248:	20363164 	eorscs	r3, r6, r4, ror #2
 24c:	68746d2d 	ldmdavs	r4!, {r0, r2, r3, r5, r8, sl, fp, sp, lr}^
 250:	20626d75 	rsbcs	r6, r2, r5, ror sp
 254:	6c746d2d 	ldclvs	13, cr6, [r4], #-180	; 0xffffff4c
 258:	69642d73 	stmdbvs	r4!, {r0, r1, r4, r5, r6, r8, sl, fp, sp}^
 25c:	63656c61 	cmnvs	r5, #24832	; 0x6100
 260:	6e673d74 	mcrvs	13, 3, r3, cr7, cr4, {3}
 264:	672d2075 			; <UNDEFINED> instruction: 0x672d2075
 268:	53494d00 	movtpl	r4, #40192	; 0x9d00
 26c:	535f3143 	cmppl	pc, #-1073741808	; 0xc0000010
 270:	43005445 	movwmi	r5, #1093	; 0x445
 274:	00525047 	subseq	r5, r2, r7, asr #32
 278:	44435343 	strbmi	r5, [r3], #-835	; 0x343
 27c:	6c003252 	sfmvs	f3, 4, [r0], {82}	; 0x52
 280:	20676e6f 	rsbcs	r6, r7, pc, ror #28
 284:	676e6f6c 	strbvs	r6, [lr, -ip, ror #30]!
 288:	736e7520 	cmnvc	lr, #32, 10	; 0x8000000
 28c:	656e6769 	strbvs	r6, [lr, #-1897]!	; 0x769
 290:	6e692064 	cdpvs	0, 6, cr2, cr9, cr4, {3}
 294:	49430074 	stmdbmi	r3, {r2, r4, r5, r6}^
 298:	7500524d 	strvc	r5, [r0, #-589]	; 0x24d
 29c:	33746e69 	cmncc	r4, #1680	; 0x690
 2a0:	00745f32 	rsbseq	r5, r4, r2, lsr pc
 2a4:	5f4c4c50 	svcpl	0x004c4c50
 2a8:	45444956 	strbmi	r4, [r4, #-2390]	; 0x956
 2ac:	45445f4f 	strbmi	r5, [r4, #-3919]	; 0xf4f
 2b0:	004d4f4e 	subeq	r4, sp, lr, asr #30
 2b4:	4353494d 	cmpmi	r3, #1261568	; 0x134000
 2b8:	4c435f32 	mcrrmi	15, 3, r5, r3, cr2
 2bc:	682f0052 	stmdavs	pc!, {r1, r4, r6}	; <UNPREDICTABLE>
 2c0:	2f656d6f 	svccs	0x00656d6f
 2c4:	6179756c 	cmnvs	r9, ip, ror #10
 2c8:	6e61686f 	cdpvs	8, 6, cr6, cr1, cr15, {3}
 2cc:	31303031 	teqcc	r0, r1, lsr r0
 2d0:	6f72502f 	svcvs	0x0072502f
 2d4:	7463656a 	strbtvc	r6, [r3], #-1386	; 0x56a
 2d8:	6d692f73 	stclvs	15, cr2, [r9, #-460]!	; 0xfffffe34
 2dc:	6c753678 	ldclvs	6, cr3, [r5], #-480	; 0xfffffe20
 2e0:	6d652d6c 	stclvs	13, cr2, [r5, #-432]!	; 0xfffffe50
 2e4:	64646562 	strbtvs	r6, [r4], #-1378	; 0x562
 2e8:	622f6465 	eorvs	r6, pc, #1694498816	; 0x65000000
 2ec:	2d657261 	sfmcs	f7, 2, [r5, #-388]!	; 0xfffffe7c
 2f0:	6174656d 	cmnvs	r4, sp, ror #10
 2f4:	35302f6c 	ldrcc	r2, [r0, #-3948]!	; 0xf6c
 2f8:	64656c2d 	strbtvs	r6, [r5], #-3117	; 0xc2d
 2fc:	7073622d 	rsbsvc	r6, r3, sp, lsr #4
 300:	44465000 	strbmi	r5, [r6], #-0
 304:	3038345f 	eorscc	r3, r8, pc, asr r4
 308:	5445535f 	strbpl	r5, [r5], #-863	; 0x35f
 30c:	53484300 	movtpl	r4, #33536	; 0x8300
 310:	52444343 	subpl	r4, r4, #201326593	; 0xc000001
 314:	6f687300 	svcvs	0x00687300
 318:	75207472 	strvc	r7, [r0, #-1138]!	; 0x472
 31c:	6769736e 	strbvs	r7, [r9, -lr, ror #6]!
 320:	2064656e 	rsbcs	r6, r4, lr, ror #10
 324:	00746e69 	rsbseq	r6, r4, r9, ror #28
 328:	5f4c4c50 	svcpl	0x004c4c50
 32c:	5f535953 	svcpl	0x00535953
 330:	00544553 	subseq	r4, r4, r3, asr r5
 334:	5f4c4c50 	svcpl	0x004c4c50
 338:	5f535953 	svcpl	0x00535953
 33c:	4f4e4544 	svcmi	0x004e4544
 340:	494d004d 	stmdbmi	sp, {r0, r2, r3, r6}^
 344:	5f304353 	svcpl	0x00304353
 348:	00474f54 	subeq	r4, r7, r4, asr pc
 34c:	5f444650 	svcpl	0x00444650
 350:	5f383235 	svcpl	0x00383235
 354:	00524c43 	subseq	r4, r2, r3, asr #24
 358:	5f4c4c50 	svcpl	0x004c4c50
 35c:	49445541 	stmdbmi	r4, {r0, r6, r8, sl, ip, lr}^
 360:	45445f4f 	strbmi	r5, [r4, #-3919]	; 0xf4f
 364:	004d4f4e 	subeq	r4, sp, lr, asr #30
 368:	5f4c4c50 	svcpl	0x004c4c50
 36c:	54454e45 	strbpl	r4, [r5], #-3653	; 0xe45
 370:	5445535f 	strbpl	r5, [r5], #-863	; 0x35f
 374:	4c4c5000 	marmi	acc0, r5, ip
 378:	4253555f 	subsmi	r5, r3, #398458880	; 0x17c00000
 37c:	45535f32 	ldrbmi	r5, [r3, #-3890]	; 0xf32
 380:	42430054 	submi	r0, r3, #84	; 0x54
 384:	00524d43 	subseq	r4, r2, r3, asr #26
 388:	52534343 	subspl	r4, r3, #201326593	; 0xc000001
 38c:	47434300 	strbmi	r4, [r3, -r0, lsl #6]
 390:	52003052 	andpl	r3, r0, #82	; 0x52
 394:	52455345 	subpl	r5, r5, #335544321	; 0x14000001
 398:	5f444556 	svcpl	0x00444556
 39c:	45520030 	ldrbmi	r0, [r2, #-48]	; 0x30
 3a0:	56524553 			; <UNDEFINED> instruction: 0x56524553
 3a4:	315f4445 	cmpcc	pc, r5, asr #8
 3a8:	53455200 	movtpl	r5, #20992	; 0x5200
 3ac:	45565245 	ldrbmi	r5, [r6, #-581]	; 0x245
 3b0:	00325f44 	eorseq	r5, r2, r4, asr #30
 3b4:	45534552 	ldrbmi	r4, [r3, #-1362]	; 0x552
 3b8:	44455652 	strbmi	r5, [r5], #-1618	; 0x652
 3bc:	5200335f 	andpl	r3, r0, #2080374785	; 0x7c000001
 3c0:	52455345 	subpl	r5, r5, #335544321	; 0x14000001
 3c4:	5f444556 	svcpl	0x00444556
 3c8:	45520034 	ldrbmi	r0, [r2, #-52]	; 0x34
 3cc:	56524553 			; <UNDEFINED> instruction: 0x56524553
 3d0:	355f4445 	ldrbcc	r4, [pc, #-1093]	; ffffff93 <__bss_end+0x787ffa4f>
 3d4:	53455200 	movtpl	r5, #20992	; 0x5200
 3d8:	45565245 	ldrbmi	r5, [r6, #-581]	; 0x245
 3dc:	00365f44 	eorseq	r5, r6, r4, asr #30
 3e0:	5f4c4c50 	svcpl	0x004c4c50
 3e4:	5f4d5241 	svcpl	0x004d5241
 3e8:	00474f54 	subeq	r4, r7, r4, asr pc
 3ec:	5f4c4c50 	svcpl	0x004c4c50
 3f0:	54454e45 	strbpl	r4, [r5], #-3653	; 0xe45
 3f4:	4c4c5000 	marmi	acc0, r5, ip
 3f8:	4455415f 	ldrbmi	r4, [r5], #-351	; 0x15f
 3fc:	545f4f49 	ldrbpl	r4, [pc], #-3913	; 404 <_start-0x877ffbfc>
 400:	4d00474f 	stcmi	7, cr4, [r0, #-316]	; 0xfffffec4
 404:	32435349 	subcc	r5, r3, #603979777	; 0x24000001
 408:	5445535f 	strbpl	r5, [r5], #-863	; 0x35f
 40c:	43414300 	movtmi	r4, #4864	; 0x1300
 410:	4d005252 	sfmmi	f5, 4, [r0, #-328]	; 0xfffffeb8
 414:	30435349 	subcc	r5, r3, r9, asr #6
 418:	524c435f 	subpl	r4, ip, #2080374785	; 0x7c000001
 41c:	4c4c5000 	marmi	acc0, r5, ip
 420:	4455415f 	ldrbmi	r4, [r5], #-351	; 0x15f
 424:	4e5f4f49 	cdpmi	15, 5, cr4, cr15, cr9, {2}
 428:	73004d55 	movwvc	r4, #3413	; 0xd55
 42c:	74657a69 	strbtvc	r7, [r5], #-2665	; 0xa69
 430:	00657079 	rsbeq	r7, r5, r9, ror r0
 434:	5f4c4c50 	svcpl	0x004c4c50
 438:	31425355 	cmpcc	r2, r5, asr r3
 43c:	474f545f 	smlsldmi	r5, pc, pc, r4	; <UNPREDICTABLE>
 440:	4c4c5000 	marmi	acc0, r5, ip
 444:	5359535f 	cmppl	r9, #2080374785	; 0x7c000001
 448:	4d554e5f 	ldclmi	14, cr4, [r5, #-380]	; 0xfffffe84
 44c:	43444300 	movtmi	r4, #17152	; 0x4300
 450:	43005244 	movwmi	r5, #580	; 0x244
 454:	44433153 	strbmi	r3, [r3], #-339	; 0x153
 458:	46500052 			; <UNDEFINED> instruction: 0x46500052
 45c:	32355f44 	eorscc	r5, r5, #68, 30	; 0x110
 460:	45535f38 	ldrbmi	r5, [r3, #-3896]	; 0xf38
 464:	4c500054 	mrrcmi	0, 5, r0, r0, cr4	; <UNPREDICTABLE>
 468:	4e455f4c 	cdpmi	15, 4, cr5, cr5, cr12, {2}
 46c:	545f5445 	ldrbpl	r5, [pc], #-1093	; 474 <_start-0x877ffb8c>
 470:	4300474f 	movwmi	r4, #1871	; 0x74f
 474:	524f454d 	subpl	r4, pc, #322961408	; 0x13400000
 478:	43534300 	cmpmi	r3, #0, 6
 47c:	0031524d 	eorseq	r5, r1, sp, asr #4
 480:	52474343 	subpl	r4, r7, #201326593	; 0xc000001
 484:	4c500031 	mrrcmi	0, 3, r0, r0, cr1	; <UNPREDICTABLE>
 488:	55415f4c 	strbpl	r5, [r1, #-3916]	; 0xf4c
 48c:	004f4944 	subeq	r4, pc, r4, asr #18
 490:	52474343 	subpl	r4, r7, #201326593	; 0xc000001
 494:	43430032 	movtmi	r0, #12338	; 0x3032
 498:	00335247 	eorseq	r5, r3, r7, asr #4
 49c:	5f4c4c50 	svcpl	0x004c4c50
 4a0:	5f4d5241 	svcpl	0x004d5241
 4a4:	00544553 	subseq	r4, r4, r3, asr r5
 4a8:	52474343 	subpl	r4, r7, #201326593	; 0xc000001
 4ac:	43430034 	movtmi	r0, #12340	; 0x3034
 4b0:	00355247 	eorseq	r5, r5, r7, asr #4
 4b4:	52474343 	subpl	r4, r7, #201326593	; 0xc000001
 4b8:	4c500036 	mrrcmi	0, 3, r0, r0, cr6	; <UNPREDICTABLE>
 4bc:	49565f4c 	ldmdbmi	r6, {r2, r3, r6, r8, r9, sl, fp, ip, lr}^
 4c0:	5f4f4544 	svcpl	0x004f4544
 4c4:	00474f54 	subeq	r4, r7, r4, asr pc
 4c8:	4353494d 	cmpmi	r3, #1261568	; 0x134000
 4cc:	4f545f31 	svcmi	0x00545f31
 4d0:	6e690047 	cdpvs	0, 6, cr0, cr9, cr7, {2}
 4d4:	52747570 	rsbspl	r7, r4, #112, 10	; 0x1c000000
 4d8:	73696765 	cmnvc	r9, #26476544	; 0x1940000
 4dc:	00726574 	rsbseq	r6, r2, r4, ror r5
 4e0:	74617473 	strbtvc	r7, [r1], #-1139	; 0x473
 4e4:	47007375 	smlsdxmi	r0, r5, r3, r7
 4e8:	00524944 	subseq	r4, r2, r4, asr #18
 4ec:	5278756d 	rsbspl	r7, r8, #457179136	; 0x1b400000
 4f0:	73696765 	cmnvc	r9, #26476544	; 0x1940000
 4f4:	00726574 	rsbseq	r6, r2, r4, ror r5
 4f8:	4d78756d 	cfldr64mi	mvdx7, [r8, #-436]!	; 0xfffffe4c
 4fc:	0065646f 	rsbeq	r6, r5, pc, ror #8
 500:	75706e69 	ldrbvc	r6, [r0, #-3689]!	; 0xe69
 504:	666e4f74 	uqsub16vs	r4, lr, r4
 508:	646c6569 	strbtvs	r6, [ip], #-1385	; 0x569
 50c:	622f2e00 	eorvs	r2, pc, #0, 28
 510:	6c2f7073 	stcvs	0, cr7, [pc], #-460	; 34c <_start-0x877ffcb4>
 514:	622f6465 	eorvs	r6, pc, #1694498816	; 0x65000000
 518:	6c5f7073 	mrrcvs	0, 7, r7, pc, cr3	; <UNPREDICTABLE>
 51c:	632e6465 	teqvs	lr, #1694498816	; 0x65000000
 520:	4d4f4900 	stclmi	9, cr4, [pc, #-0]	; 528 <_start-0x877ffad8>
 524:	5f435855 	svcpl	0x00435855
 528:	50746553 	rsbspl	r6, r4, r3, asr r5
 52c:	754d6e69 	strbvc	r6, [sp, #-3689]	; 0xe69
 530:	6e690078 	mcrvs	0, 3, r0, cr9, cr8, {3}
 534:	44747570 	ldrbtmi	r7, [r4], #-1392	; 0x570
 538:	79736961 	ldmdbvc	r3!, {r0, r5, r6, r8, fp, sp, lr}^
 53c:	49504700 	ldmdbmi	r0, {r8, r9, sl, lr}^
 540:	79545f4f 	ldmdbvc	r4, {r0, r1, r2, r3, r6, r8, r9, sl, fp, ip, lr}^
 544:	49006570 	stmdbmi	r0, {r4, r5, r6, r8, sl, sp, lr}
 548:	58554d4f 	ldmdapl	r5, {r0, r1, r2, r3, r6, r8, sl, fp, lr}^
 54c:	65535f43 	ldrbvs	r5, [r3, #-3907]	; 0xf43
 550:	6e695074 	mcrvs	0, 3, r5, cr9, cr4, {3}
 554:	666e6f43 	strbtvs	r6, [lr], -r3, asr #30
 558:	63006769 	movwvs	r6, #1897	; 0x769
 55c:	69666e6f 	stmdbvs	r6!, {r0, r1, r2, r3, r5, r6, r9, sl, fp, sp, lr}^
 560:	67655267 	strbvs	r5, [r5, -r7, ror #4]!
 564:	65747369 	ldrbvs	r7, [r4, #-873]!	; 0x369
 568:	44450072 	strbmi	r0, [r5], #-114	; 0x72
 56c:	535f4547 	cmppl	pc, #297795584	; 0x11c00000
 570:	49004c45 	stmdbmi	r0, {r0, r2, r6, sl, fp, lr}
 574:	00315243 	eorseq	r5, r1, r3, asr #4
 578:	32524349 	subscc	r4, r2, #603979777	; 0x24000001
 57c:	64656c00 	strbtvs	r6, [r5], #-3072	; 0xc00
 580:	696e695f 	stmdbvs	lr!, {r0, r1, r2, r3, r4, r6, r8, fp, sp, lr}^
 584:	6f630074 	svcvs	0x00630074
 588:	6769666e 	strbvs	r6, [r9, -lr, ror #12]!
 58c:	756c6156 	strbvc	r6, [ip, #-342]!	; 0x156
 590:	656c0065 	strbvs	r0, [ip, #-101]!	; 0x65
 594:	77735f64 	ldrbvc	r5, [r3, -r4, ror #30]!
 598:	68637469 	stmdavs	r3!, {r0, r3, r5, r6, sl, ip, sp, lr}^
 59c:	77656e00 	strbvc	r6, [r5, -r0, lsl #28]!
 5a0:	00746e63 	rsbseq	r6, r4, r3, ror #28
 5a4:	63646c6f 	cmnvs	r4, #28416	; 0x6f00
 5a8:	6400746e 	strvs	r7, [r0], #-1134	; 0x46e
 5ac:	79616c65 	stmdbvc	r1!, {r0, r2, r5, r6, sl, fp, sp, lr}^
 5b0:	696e695f 	stmdbvs	lr!, {r0, r1, r2, r3, r4, r6, r8, fp, sp, lr}^
 5b4:	65640074 	strbvs	r0, [r4, #-116]!	; 0x74
 5b8:	6d79616c 	ldfvse	f6, [r9, #-432]!	; 0xfffffe50
 5bc:	73750073 	cmnvc	r5, #115	; 0x73
 5c0:	616c6564 	cmnvs	ip, r4, ror #10
 5c4:	65640079 	strbvs	r0, [r4, #-121]!	; 0x79
 5c8:	5f79616c 	svcpl	0x0079616c
 5cc:	726f6873 	rsbvc	r6, pc, #7536640	; 0x730000
 5d0:	65640074 	strbvs	r0, [r4, #-116]!	; 0x74
 5d4:	7579616c 	ldrbvc	r6, [r9, #-364]!	; 0x16c
 5d8:	736d0073 	cmnvc	sp, #115	; 0x73
 5dc:	616c6564 	cmnvs	ip, r4, ror #10
 5e0:	63740079 	cmnvs	r4, #121	; 0x79
 5e4:	6176746e 	cmnvs	r6, lr, ror #8
 5e8:	0065756c 	rsbeq	r7, r5, ip, ror #10
 5ec:	5f545047 	svcpl	0x00545047
 5f0:	65707954 	ldrbvs	r7, [r0, #-2388]!	; 0x954
 5f4:	622f2e00 	eorvs	r2, pc, #0, 28
 5f8:	642f7073 	strtvs	r7, [pc], #-115	; 600 <_start-0x877ffa00>
 5fc:	79616c65 	stmdbvc	r1!, {r0, r2, r5, r6, sl, fp, sp, lr}^
 600:	7073622f 	rsbsvc	r6, r3, pc, lsr #4
 604:	6c65645f 	cfstrdvs	mvd6, [r5], #-380	; 0xfffffe84
 608:	632e7961 	teqvs	lr, #1589248	; 0x184000
	...

Disassembly of section .debug_frame:

00000000 <.debug_frame>:
   0:	0000000c 	andeq	r0, r0, ip
   4:	ffffffff 			; <UNDEFINED> instruction: 0xffffffff
   8:	7c020001 	stcvc	0, cr0, [r2], {1}
   c:	000d0c0e 	andeq	r0, sp, lr, lsl #24
  10:	0000001c 	andeq	r0, r0, ip, lsl r0
  14:	00000000 	andeq	r0, r0, r0
  18:	8780003c 			; <UNDEFINED> instruction: 0x8780003c
  1c:	00000070 	andeq	r0, r0, r0, ror r0
  20:	87040e41 	strhi	r0, [r4, -r1, asr #28]
  24:	070d4101 	streq	r4, [sp, -r1, lsl #2]
  28:	420d0d73 	andmi	r0, sp, #7360	; 0x1cc0
  2c:	00000ec7 	andeq	r0, r0, r7, asr #29
  30:	00000024 	andeq	r0, r0, r4, lsr #32
  34:	00000000 	andeq	r0, r0, r0
  38:	878000ac 	strhi	r0, [r0, ip, lsr #1]
  3c:	000001d2 	ldrdeq	r0, [r0], -r2
  40:	87040e41 	strhi	r0, [r4, -r1, asr #28]
  44:	100e4101 	andne	r4, lr, r1, lsl #2
  48:	02070d41 	andeq	r0, r7, #4160	; 0x1040
  4c:	41040ee2 	smlattmi	r4, r2, lr, r0
  50:	c7420d0d 	strbgt	r0, [r2, -sp, lsl #26]
  54:	0000000e 	andeq	r0, r0, lr
  58:	0000000c 	andeq	r0, r0, ip
  5c:	ffffffff 			; <UNDEFINED> instruction: 0xffffffff
  60:	7c020001 	stcvc	0, cr0, [r2], {1}
  64:	000d0c0e 	andeq	r0, sp, lr, lsl #24
  68:	00000024 	andeq	r0, r0, r4, lsr #32
  6c:	00000058 	andeq	r0, r0, r8, asr r0
  70:	87800280 	strhi	r0, [r0, r0, lsl #5]
  74:	0000003c 	andeq	r0, r0, ip, lsr r0
  78:	87040e41 	strhi	r0, [r4, -r1, asr #28]
  7c:	180e4101 	stmdane	lr, {r0, r8, lr}
  80:	57070d41 	strpl	r0, [r7, -r1, asr #26]
  84:	0d41040e 	cfstrdeq	mvd0, [r1, #-56]	; 0xffffffc8
  88:	0ec7420d 	cdpeq	2, 12, cr4, cr7, cr13, {0}
  8c:	00000000 	andeq	r0, r0, r0
  90:	00000024 	andeq	r0, r0, r4, lsr #32
  94:	00000058 	andeq	r0, r0, r8, asr r0
  98:	878002bc 			; <UNDEFINED> instruction: 0x878002bc
  9c:	00000024 	andeq	r0, r0, r4, lsr #32
  a0:	87040e41 	strhi	r0, [r4, -r1, asr #28]
  a4:	180e4101 	stmdane	lr, {r0, r8, lr}
  a8:	4b070d41 	blmi	1c35b4 <_start-0x8763ca4c>
  ac:	0d41040e 	cfstrdeq	mvd0, [r1, #-56]	; 0xffffffc8
  b0:	0ec7420d 	cdpeq	2, 12, cr4, cr7, cr13, {0}
  b4:	00000000 	andeq	r0, r0, r0
  b8:	00000020 	andeq	r0, r0, r0, lsr #32
  bc:	00000058 	andeq	r0, r0, r8, asr r0
  c0:	878002e0 	strhi	r0, [r0, r0, ror #5]
  c4:	00000078 	andeq	r0, r0, r8, ror r0
  c8:	87080e41 	strhi	r0, [r8, -r1, asr #28]
  cc:	41018e02 	tstmi	r1, r2, lsl #28
  d0:	0c41100e 	mcrreq	0, 0, r1, r1, cr14
  d4:	0d780807 	ldcleq	8, cr0, [r8, #-28]!	; 0xffffffe4
  d8:	0000000d 	andeq	r0, r0, sp
  dc:	00000024 	andeq	r0, r0, r4, lsr #32
  e0:	00000058 	andeq	r0, r0, r8, asr r0
  e4:	87800358 			; <UNDEFINED> instruction: 0x87800358
  e8:	0000005a 	andeq	r0, r0, sl, asr r0
  ec:	87040e41 	strhi	r0, [r4, -r1, asr #28]
  f0:	100e4101 	andne	r4, lr, r1, lsl #2
  f4:	66070d41 	strvs	r0, [r7], -r1, asr #26
  f8:	0d41040e 	cfstrdeq	mvd0, [r1, #-56]	; 0xffffffc8
  fc:	0ec7420d 	cdpeq	2, 12, cr4, cr7, cr13, {0}
 100:	00000000 	andeq	r0, r0, r0
 104:	0000000c 	andeq	r0, r0, ip
 108:	ffffffff 			; <UNDEFINED> instruction: 0xffffffff
 10c:	7c020001 	stcvc	0, cr0, [r2], {1}
 110:	000d0c0e 	andeq	r0, sp, lr, lsl #24
 114:	0000001c 	andeq	r0, r0, ip, lsl r0
 118:	00000104 	andeq	r0, r0, r4, lsl #2
 11c:	878003b4 			; <UNDEFINED> instruction: 0x878003b4
 120:	0000007a 	andeq	r0, r0, sl, ror r0
 124:	87040e41 	strhi	r0, [r4, -r1, asr #28]
 128:	070d4101 	streq	r4, [sp, -r1, lsl #2]
 12c:	420d0d78 	andmi	r0, sp, #120, 26	; 0x1e00
 130:	00000ec7 	andeq	r0, r0, r7, asr #29
 134:	00000024 	andeq	r0, r0, r4, lsr #32
 138:	00000104 	andeq	r0, r0, r4, lsl #2
 13c:	87800430 			; <UNDEFINED> instruction: 0x87800430
 140:	0000006a 	andeq	r0, r0, sl, rrx
 144:	87040e41 	strhi	r0, [r4, -r1, asr #28]
 148:	200e4101 	andcs	r4, lr, r1, lsl #2
 14c:	6e070d41 	cdpvs	13, 0, cr0, cr7, cr1, {2}
 150:	0d41040e 	cfstrdeq	mvd0, [r1, #-56]	; 0xffffffc8
 154:	0ec7420d 	cdpeq	2, 12, cr4, cr7, cr13, {0}
 158:	00000000 	andeq	r0, r0, r0
 15c:	00000020 	andeq	r0, r0, r0, lsr #32
 160:	00000104 	andeq	r0, r0, r4, lsl #2
 164:	8780049c 			; <UNDEFINED> instruction: 0x8780049c
 168:	0000002e 	andeq	r0, r0, lr, lsr #32
 16c:	87080e41 	strhi	r0, [r8, -r1, asr #28]
 170:	41018e02 	tstmi	r1, r2, lsl #28
 174:	0d41180e 	stcleq	8, cr1, [r1, #-56]	; 0xffffffc8
 178:	080e5207 	stmdaeq	lr, {r0, r1, r2, r9, ip, lr}
 17c:	000d0d41 	andeq	r0, sp, r1, asr #26
 180:	00000024 	andeq	r0, r0, r4, lsr #32
 184:	00000104 	andeq	r0, r0, r4, lsl #2
 188:	878004cc 	strhi	r0, [r0, ip, asr #9]
 18c:	0000001e 	andeq	r0, r0, lr, lsl r0
 190:	87040e41 	strhi	r0, [r4, -r1, asr #28]
 194:	100e4101 	andne	r4, lr, r1, lsl #2
 198:	48070d41 	stmdami	r7, {r0, r6, r8, sl, fp}
 19c:	0d41040e 	cfstrdeq	mvd0, [r1, #-56]	; 0xffffffc8
 1a0:	0ec7420d 	cdpeq	2, 12, cr4, cr7, cr13, {0}
 1a4:	00000000 	andeq	r0, r0, r0
 1a8:	00000020 	andeq	r0, r0, r0, lsr #32
 1ac:	00000104 	andeq	r0, r0, r4, lsl #2
 1b0:	878004ec 	strhi	r0, [r0, ip, ror #9]
 1b4:	00000022 	andeq	r0, r0, r2, lsr #32
 1b8:	87080e41 	strhi	r0, [r8, -r1, asr #28]
 1bc:	41018e02 	tstmi	r1, r2, lsl #28
 1c0:	0d41100e 	stcleq	0, cr1, [r1, #-56]	; 0xffffffc8
 1c4:	080e4c07 	stmdaeq	lr, {r0, r1, r2, sl, fp, lr}
 1c8:	000d0d41 	andeq	r0, sp, r1, asr #26
